

Microchip MPLAB XC8 Assembler V2.35 build 20211206165544 
                                                                                               Sat May 14 21:53:10 2022

Microchip MPLAB XC8 C Compiler v2.35 (Free license) build 20211206165544 Og1 
     1                           	processor	16F887
     2                           	pagewidth 120
     3                           	opt	flic
     4                           	psect	idataBANK1,global,class=CODE,delta=2,noexec
     5                           	psect	cinit,global,class=CODE,merge=1,delta=2
     6                           	psect	bssBANK0,global,class=BANK0,space=1,delta=1,noexec
     7                           	psect	bssBANK1,global,class=BANK1,space=1,delta=1,noexec
     8                           	psect	dataBANK1,global,class=BANK1,space=1,delta=1,noexec
     9                           	psect	cstackBANK1,global,class=BANK1,space=1,delta=1,noexec
    10                           	psect	cstackCOMMON,global,class=COMMON,space=1,delta=1,noexec
    11                           	psect	cstackBANK0,global,class=BANK0,space=1,delta=1,noexec
    12                           	psect	maintext,global,class=CODE,split=1,delta=2
    13                           	psect	text1,local,class=CODE,merge=1,delta=2
    14                           	psect	text2,local,class=CODE,merge=1,delta=2
    15                           	psect	intentry,global,class=CODE,delta=2
    16                           	psect	text3,local,class=CODE,merge=1,delta=2
    17                           	psect	text4,local,class=CODE,merge=1,delta=2,group=1
    18                           	psect	text5,local,class=CODE,merge=1,delta=2,group=1
    19                           	psect	text6,local,class=CODE,merge=1,delta=2,group=1
    20                           	psect	text7,local,class=CODE,merge=1,delta=2,group=1
    21                           	psect	text8,local,class=CODE,merge=1,delta=2,group=1
    22                           	psect	text9,local,class=CODE,merge=1,delta=2,group=1
    23                           	psect	idloc,global,abs,ovrld,class=IDLOC,space=5,delta=2,noexec
    24                           	psect	config,global,abs,ovrld,class=CONFIG,space=4,delta=2,noexec
    25                           	dabs	1,0x7E,2
    26  0000                     
    27                           ; Version 2.40
    28                           ; Generated 17/11/2021 GMT
    29                           ; 
    30                           ; Copyright © 2021, Microchip Technology Inc. and its subsidiaries ("Microchip")
    31                           ; All rights reserved.
    32                           ; 
    33                           ; This software is developed by Microchip Technology Inc. and its subsidiaries ("Microch
      +                          ip").
    34                           ; 
    35                           ; Redistribution and use in source and binary forms, with or without modification, are
    36                           ; permitted provided that the following conditions are met:
    37                           ; 
    38                           ;     1. Redistributions of source code must retain the above copyright notice, this lis
      +                          t of
    39                           ;        conditions and the following disclaimer.
    40                           ; 
    41                           ;     2. Redistributions in binary form must reproduce the above copyright notice, this 
      +                          list
    42                           ;        of conditions and the following disclaimer in the documentation and/or other
    43                           ;        materials provided with the distribution. Publication is not required when
    44                           ;        this file is used in an embedded application.
    45                           ; 
    46                           ;     3. Microchip's name may not be used to endorse or promote products derived from th
      +                          is
    47                           ;        software without specific prior written permission.
    48                           ; 
    49                           ; THIS SOFTWARE IS PROVIDED BY MICROCHIP "AS IS" AND ANY EXPRESS OR IMPLIED WARRANTIES,
    50                           ; INCLUDING, BUT NOT LIMITED TO, THE IMPLIED WARRANTIES OF MERCHANTABILITY AND FITNESS F
      +                          OR
    51                           ; PURPOSE ARE DISCLAIMED.  IN NO EVENT SHALL MICROCHIP BE LIABLE FOR ANY DIRECT, INDIREC
      +                          T,
    52                           ; INCIDENTAL, SPECIAL, EXEMPLARY, OR CONSEQUENTIAL DAMAGES (INCLUDING BUT NOT LIMITED TO
    53                           ; PROCUREMENT OF SUBSTITUTE GOODS OR SERVICES; LOSS OF USE, DATA OR PROFITS; OR BUSINESS
    54                           ; INTERRUPTION) HOWSOEVER CAUSED AND ON ANY THEORY OF LIABILITY, WHETHER IN CONTRACT, ST
      +                          RICT
    55                           ; LIABILITY, OR TORT (INCLUDING NEGLIGENCE OR OTHERWISE) ARISING IN ANY WAY OUT OF THE U
      +                          SE OF
    56                           ; THIS SOFTWARE, EVEN IF ADVISED OF THE POSSIBILITY OF SUCH DAMAGE.
    57                           ; 
    58                           ; 
    59                           ; Code-generator required, PIC16F887 Definitions
    60                           ; 
    61                           ; SFR Addresses
    62  0000                     	;# 
    63  0001                     	;# 
    64  0002                     	;# 
    65  0003                     	;# 
    66  0004                     	;# 
    67  0005                     	;# 
    68  0006                     	;# 
    69  0007                     	;# 
    70  0008                     	;# 
    71  0009                     	;# 
    72  000A                     	;# 
    73  000B                     	;# 
    74  000C                     	;# 
    75  000D                     	;# 
    76  000E                     	;# 
    77  000E                     	;# 
    78  000F                     	;# 
    79  0010                     	;# 
    80  0011                     	;# 
    81  0012                     	;# 
    82  0013                     	;# 
    83  0014                     	;# 
    84  0015                     	;# 
    85  0015                     	;# 
    86  0016                     	;# 
    87  0017                     	;# 
    88  0018                     	;# 
    89  0019                     	;# 
    90  001A                     	;# 
    91  001B                     	;# 
    92  001B                     	;# 
    93  001C                     	;# 
    94  001D                     	;# 
    95  001E                     	;# 
    96  001F                     	;# 
    97  0081                     	;# 
    98  0085                     	;# 
    99  0086                     	;# 
   100  0087                     	;# 
   101  0088                     	;# 
   102  0089                     	;# 
   103  008C                     	;# 
   104  008D                     	;# 
   105  008E                     	;# 
   106  008F                     	;# 
   107  0090                     	;# 
   108  0091                     	;# 
   109  0092                     	;# 
   110  0093                     	;# 
   111  0093                     	;# 
   112  0093                     	;# 
   113  0094                     	;# 
   114  0095                     	;# 
   115  0096                     	;# 
   116  0097                     	;# 
   117  0098                     	;# 
   118  0099                     	;# 
   119  009A                     	;# 
   120  009B                     	;# 
   121  009C                     	;# 
   122  009D                     	;# 
   123  009E                     	;# 
   124  009F                     	;# 
   125  0105                     	;# 
   126  0107                     	;# 
   127  0108                     	;# 
   128  0109                     	;# 
   129  010C                     	;# 
   130  010C                     	;# 
   131  010D                     	;# 
   132  010E                     	;# 
   133  010F                     	;# 
   134  0185                     	;# 
   135  0187                     	;# 
   136  0188                     	;# 
   137  0189                     	;# 
   138  018C                     	;# 
   139  018D                     	;# 
   140  0000                     	;# 
   141  0001                     	;# 
   142  0002                     	;# 
   143  0003                     	;# 
   144  0004                     	;# 
   145  0005                     	;# 
   146  0006                     	;# 
   147  0007                     	;# 
   148  0008                     	;# 
   149  0009                     	;# 
   150  000A                     	;# 
   151  000B                     	;# 
   152  000C                     	;# 
   153  000D                     	;# 
   154  000E                     	;# 
   155  000E                     	;# 
   156  000F                     	;# 
   157  0010                     	;# 
   158  0011                     	;# 
   159  0012                     	;# 
   160  0013                     	;# 
   161  0014                     	;# 
   162  0015                     	;# 
   163  0015                     	;# 
   164  0016                     	;# 
   165  0017                     	;# 
   166  0018                     	;# 
   167  0019                     	;# 
   168  001A                     	;# 
   169  001B                     	;# 
   170  001B                     	;# 
   171  001C                     	;# 
   172  001D                     	;# 
   173  001E                     	;# 
   174  001F                     	;# 
   175  0081                     	;# 
   176  0085                     	;# 
   177  0086                     	;# 
   178  0087                     	;# 
   179  0088                     	;# 
   180  0089                     	;# 
   181  008C                     	;# 
   182  008D                     	;# 
   183  008E                     	;# 
   184  008F                     	;# 
   185  0090                     	;# 
   186  0091                     	;# 
   187  0092                     	;# 
   188  0093                     	;# 
   189  0093                     	;# 
   190  0093                     	;# 
   191  0094                     	;# 
   192  0095                     	;# 
   193  0096                     	;# 
   194  0097                     	;# 
   195  0098                     	;# 
   196  0099                     	;# 
   197  009A                     	;# 
   198  009B                     	;# 
   199  009C                     	;# 
   200  009D                     	;# 
   201  009E                     	;# 
   202  009F                     	;# 
   203  0105                     	;# 
   204  0107                     	;# 
   205  0108                     	;# 
   206  0109                     	;# 
   207  010C                     	;# 
   208  010C                     	;# 
   209  010D                     	;# 
   210  010E                     	;# 
   211  010F                     	;# 
   212  0185                     	;# 
   213  0187                     	;# 
   214  0188                     	;# 
   215  0189                     	;# 
   216  018C                     	;# 
   217  018D                     	;# 
   218                           
   219                           	psect	idataBANK1
   220  07F6                     __pidataBANK1:
   221                           
   222                           ;initializer for _cont_slave
   223  07F6  34FF               	retlw	255
   224  0012                     _T2CON	set	18
   225  0017                     _CCP1CON	set	23
   226  0014                     _SSPCONbits	set	20
   227  0009                     _PORTE	set	9
   228  0007                     _PORTC	set	7
   229  0006                     _PORTB	set	6
   230  0005                     _PORTA	set	5
   231  0017                     _CCP1CONbits	set	23
   232  0015                     _CCPR1L	set	21
   233  001F                     _ADCON0bits	set	31
   234  0006                     _PORTBbits	set	6
   235  000B                     _INTCONbits	set	11
   236  0008                     _PORTD	set	8
   237  0013                     _SSPBUF	set	19
   238  000C                     _PIR1bits	set	12
   239  0005                     _PORTAbits	set	5
   240  0092                     _PR2	set	146
   241  0087                     _TRISCbits	set	135
   242  008C                     _PIE1bits	set	140
   243  0096                     _IOCBbits	set	150
   244  0095                     _WPUBbits	set	149
   245  0081                     _OPTION_REGbits	set	129
   246  0086                     _TRISBbits	set	134
   247  0094                     _SSPSTATbits	set	148
   248  0089                     _TRISE	set	137
   249  0087                     _TRISC	set	135
   250  0086                     _TRISB	set	134
   251  0088                     _TRISD	set	136
   252  0085                     _TRISA	set	133
   253  008F                     _OSCCONbits	set	143
   254  0189                     _ANSELH	set	393
   255  0188                     _ANSEL	set	392
   256                           
   257                           	psect	cinit
   258  0013                     start_initialization:	
   259                           ; #config settings
   260                           
   261  0013                     __initialization:
   262                           
   263                           ; Initialize objects allocated to BANK1
   264  0013  1683               	bsf	3,5	;RP0=1, select bank1
   265  0014  1303               	bcf	3,6	;RP1=0, select bank1
   266  0015  120A  118A  27F6  120A  118A  	fcall	__pidataBANK1	;fetch initializer
   267  001A  00B6               	movwf	__pdataBANK1& (0+127)
   268                           
   269                           ; Clear objects allocated to BANK1
   270  001B  01B1               	clrf	__pbssBANK1& (0+127)
   271  001C  01B2               	clrf	(__pbssBANK1+1)& (0+127)
   272  001D  01B3               	clrf	(__pbssBANK1+2)& (0+127)
   273  001E  01B4               	clrf	(__pbssBANK1+3)& (0+127)
   274  001F  01B5               	clrf	(__pbssBANK1+4)& (0+127)
   275                           
   276                           ; Clear objects allocated to BANK0
   277  0020  1283               	bcf	3,5	;RP0=0, select bank0
   278  0021  1303               	bcf	3,6	;RP1=0, select bank0
   279  0022  01EF               	clrf	__pbssBANK0& (0+127)
   280  0023                     end_of_initialization:	
   281                           ;End of C runtime variable initialization code
   282                           
   283  0023                     __end_of__initialization:
   284  0023  0183               	clrf	3
   285  0024  120A  118A  2FED   	ljmp	_main	;jump to C main() function
   286                           
   287                           	psect	bssBANK0
   288  006F                     __pbssBANK0:
   289  006F                     _cont:
   290  006F                     	ds	1
   291                           
   292                           	psect	bssBANK1
   293  00B1                     __pbssBANK1:
   294  00B1                     _CCPR:
   295  00B1                     	ds	2
   296  00B3                     _val_temporal:
   297  00B3                     	ds	1
   298  00B4                     _cont_master:
   299  00B4                     	ds	1
   300  00B5                     _valores:
   301  00B5                     	ds	1
   302                           
   303                           	psect	dataBANK1
   304  00B6                     __pdataBANK1:
   305  00B6                     _cont_slave:
   306  00B6                     	ds	1
   307                           
   308                           	psect	cstackBANK1
   309  00A0                     __pcstackBANK1:
   310  00A0                     ??___fltol:
   311                           
   312                           ; 1 bytes @ 0x0
   313  00A0                     	ds	5
   314  00A5                     ?_map:
   315  00A5                     map@x0:	
   316                           ; 2 bytes @ 0x5
   317                           
   318                           
   319                           ; 1 bytes @ 0x5
   320  00A5                     	ds	1
   321  00A6                     map@x1:
   322                           
   323                           ; 1 bytes @ 0x6
   324  00A6                     	ds	1
   325  00A7                     map@y0:
   326                           
   327                           ; 2 bytes @ 0x7
   328  00A7                     	ds	2
   329  00A9                     map@y1:
   330                           
   331                           ; 2 bytes @ 0x9
   332  00A9                     	ds	2
   333  00AB                     ??_isr:
   334                           
   335                           ; 1 bytes @ 0xB
   336  00AB                     	ds	5
   337  00B0                     ??_setup:
   338                           
   339                           ; 1 bytes @ 0x10
   340  00B0                     	ds	1
   341  00B1                     ??_main:
   342                           
   343                           	psect	cstackCOMMON
   344  0070                     __pcstackCOMMON:	
   345                           ; 1 bytes @ 0x11
   346                           
   347  0070                     ?_setup:
   348  0070                     ?_isr:	
   349                           ; 1 bytes @ 0x0
   350                           
   351  0070                     ?_main:	
   352                           ; 1 bytes @ 0x0
   353                           
   354  0070                     ?__Umul8_16:	
   355                           ; 1 bytes @ 0x0
   356                           
   357  0070                     ?___xxtofl:	
   358                           ; 2 bytes @ 0x0
   359                           
   360  0070                     __Umul8_16@multiplicand:	
   361                           ; 4 bytes @ 0x0
   362                           
   363  0070                     ___xxtofl@val:	
   364                           ; 1 bytes @ 0x0
   365                           
   366                           
   367                           ; 4 bytes @ 0x0
   368  0070                     	ds	2
   369  0072                     ??__Umul8_16:
   370                           
   371                           ; 1 bytes @ 0x2
   372  0072                     	ds	2
   373  0074                     ??___xxtofl:
   374  0074                     __Umul8_16@product:	
   375                           ; 1 bytes @ 0x4
   376                           
   377                           
   378                           ; 2 bytes @ 0x4
   379  0074                     	ds	2
   380  0076                     __Umul8_16@word_mpld:
   381                           
   382                           ; 2 bytes @ 0x6
   383  0076                     	ds	2
   384  0078                     __Umul8_16@multiplier:
   385  0078                     ___xxtofl@sign:	
   386                           ; 1 bytes @ 0x8
   387                           
   388                           
   389                           ; 1 bytes @ 0x8
   390  0078                     	ds	1
   391  0079                     ___xxtofl@exp:
   392                           
   393                           ; 1 bytes @ 0x9
   394  0079                     	ds	1
   395  007A                     ___xxtofl@arg:
   396                           
   397                           ; 4 bytes @ 0xA
   398  007A                     	ds	4
   399  007E                     ??_map:
   400                           
   401                           	psect	cstackBANK0
   402  0020                     __pcstackBANK0:	
   403                           ; 1 bytes @ 0xE
   404                           
   405  0020                     ?___fldiv:
   406  0020                     ___fldiv@a:	
   407                           ; 4 bytes @ 0x0
   408                           
   409                           
   410                           ; 4 bytes @ 0x0
   411  0020                     	ds	4
   412  0024                     ___fldiv@b:
   413                           
   414                           ; 4 bytes @ 0x4
   415  0024                     	ds	4
   416  0028                     ??___fldiv:
   417                           
   418                           ; 1 bytes @ 0x8
   419  0028                     	ds	5
   420  002D                     ___fldiv@rem:
   421                           
   422                           ; 4 bytes @ 0xD
   423  002D                     	ds	4
   424  0031                     ___fldiv@sign:
   425                           
   426                           ; 1 bytes @ 0x11
   427  0031                     	ds	1
   428  0032                     ___fldiv@new_exp:
   429                           
   430                           ; 2 bytes @ 0x12
   431  0032                     	ds	2
   432  0034                     ___fldiv@grs:
   433                           
   434                           ; 4 bytes @ 0x14
   435  0034                     	ds	4
   436  0038                     ___fldiv@bexp:
   437                           
   438                           ; 1 bytes @ 0x18
   439  0038                     	ds	1
   440  0039                     ___fldiv@aexp:
   441                           
   442                           ; 1 bytes @ 0x19
   443  0039                     	ds	1
   444  003A                     ?___flmul:
   445  003A                     ___flmul@b:	
   446                           ; 4 bytes @ 0x1A
   447                           
   448                           
   449                           ; 4 bytes @ 0x1A
   450  003A                     	ds	4
   451  003E                     ___flmul@a:
   452                           
   453                           ; 4 bytes @ 0x1E
   454  003E                     	ds	4
   455  0042                     ??___flmul:
   456                           
   457                           ; 1 bytes @ 0x22
   458  0042                     	ds	5
   459  0047                     ___flmul@sign:
   460                           
   461                           ; 1 bytes @ 0x27
   462  0047                     	ds	1
   463  0048                     ___flmul@grs:
   464                           
   465                           ; 4 bytes @ 0x28
   466  0048                     	ds	4
   467  004C                     ___flmul@aexp:
   468                           
   469                           ; 1 bytes @ 0x2C
   470  004C                     	ds	1
   471  004D                     ___flmul@bexp:
   472                           
   473                           ; 1 bytes @ 0x2D
   474  004D                     	ds	1
   475  004E                     ___flmul@prod:
   476                           
   477                           ; 4 bytes @ 0x2E
   478  004E                     	ds	4
   479  0052                     ___flmul@temp:
   480                           
   481                           ; 2 bytes @ 0x32
   482  0052                     	ds	2
   483  0054                     ?___fladd:
   484  0054                     ___fladd@b:	
   485                           ; 4 bytes @ 0x34
   486                           
   487                           
   488                           ; 4 bytes @ 0x34
   489  0054                     	ds	4
   490  0058                     ___fladd@a:
   491                           
   492                           ; 4 bytes @ 0x38
   493  0058                     	ds	4
   494  005C                     ??___fladd:
   495                           
   496                           ; 1 bytes @ 0x3C
   497  005C                     	ds	8
   498  0064                     ___fladd@signs:
   499                           
   500                           ; 1 bytes @ 0x44
   501  0064                     	ds	1
   502  0065                     ___fladd@aexp:
   503                           
   504                           ; 1 bytes @ 0x45
   505  0065                     	ds	1
   506  0066                     ___fladd@bexp:
   507                           
   508                           ; 1 bytes @ 0x46
   509  0066                     	ds	1
   510  0067                     ___fladd@grs:
   511                           
   512                           ; 1 bytes @ 0x47
   513  0067                     	ds	1
   514  0068                     ?___fltol:
   515  0068                     ___fltol@f1:	
   516                           ; 4 bytes @ 0x48
   517                           
   518                           
   519                           ; 4 bytes @ 0x48
   520  0068                     	ds	4
   521  006C                     ___fltol@sign1:
   522                           
   523                           ; 1 bytes @ 0x4C
   524  006C                     	ds	1
   525  006D                     ___fltol@exp1:
   526                           
   527                           ; 1 bytes @ 0x4D
   528  006D                     	ds	1
   529  006E                     map@x:
   530                           
   531                           ; 1 bytes @ 0x4E
   532  006E                     	ds	1
   533                           
   534                           	psect	maintext
   535  07ED                     __pmaintext:	
   536 ;;
   537 ;;Main: autosize = 0, tempsize = 0, incstack = 0, save=0
   538 ;;
   539 ;; *************** function _main *****************
   540 ;; Defined at:
   541 ;;		line 91 in file "main11s.c"
   542 ;; Parameters:    Size  Location     Type
   543 ;;		None
   544 ;; Auto vars:     Size  Location     Type
   545 ;;		None
   546 ;; Return value:  Size  Location     Type
   547 ;;                  1    wreg      void 
   548 ;; Registers used:
   549 ;;		wreg, status,2, status,0, pclath, cstack
   550 ;; Tracked objects:
   551 ;;		On entry : B00/0
   552 ;;		On exit  : 0/0
   553 ;;		Unchanged: 0/0
   554 ;; Data sizes:     COMMON   BANK0   BANK1   BANK3   BANK2
   555 ;;      Params:         0       0       0       0       0
   556 ;;      Locals:         0       0       0       0       0
   557 ;;      Temps:          0       0       0       0       0
   558 ;;      Totals:         0       0       0       0       0
   559 ;;Total ram usage:        0 bytes
   560 ;; Hardware stack levels required when called: 5
   561 ;; This function calls:
   562 ;;		_setup
   563 ;; This function is called by:
   564 ;;		Startup code after reset
   565 ;; This function uses a non-reentrant model
   566 ;;
   567                           
   568  07ED                     _main:	
   569                           ;psect for function _main
   570                           
   571  07ED                     l2128:	
   572                           ;incstack = 0
   573                           ; Regs used in _main: [wreg+status,2+status,0+pclath+cstack]
   574                           
   575                           
   576                           ;main11s.c: 92:     setup();
   577  07ED  120A  158A  2569  120A  118A  	fcall	_setup
   578  07F2                     l100:	
   579                           ;main11s.c: 93:     while(1){
   580                           
   581  07F2                     l101:	
   582                           ;main11s.c: 95:     }
   583                           
   584  07F2  2FF2               	goto	l100
   585  07F3  120A  118A  2810   	ljmp	start
   586  07F6                     __end_of_main:
   587                           
   588                           	psect	text1
   589  0D69                     __ptext1:	
   590 ;; *************** function _setup *****************
   591 ;; Defined at:
   592 ;;		line 102 in file "main11s.c"
   593 ;; Parameters:    Size  Location     Type
   594 ;;		None
   595 ;; Auto vars:     Size  Location     Type
   596 ;;		None
   597 ;; Return value:  Size  Location     Type
   598 ;;                  1    wreg      void 
   599 ;; Registers used:
   600 ;;		wreg, status,2, status,0
   601 ;; Tracked objects:
   602 ;;		On entry : 0/0
   603 ;;		On exit  : 0/0
   604 ;;		Unchanged: 0/0
   605 ;; Data sizes:     COMMON   BANK0   BANK1   BANK3   BANK2
   606 ;;      Params:         0       0       0       0       0
   607 ;;      Locals:         0       0       0       0       0
   608 ;;      Temps:          0       0       1       0       0
   609 ;;      Totals:         0       0       1       0       0
   610 ;;Total ram usage:        1 bytes
   611 ;; Hardware stack levels used: 1
   612 ;; Hardware stack levels required when called: 4
   613 ;; This function calls:
   614 ;;		Nothing
   615 ;; This function is called by:
   616 ;;		_main
   617 ;; This function uses a non-reentrant model
   618 ;;
   619                           
   620  0D69                     _setup:	
   621                           ;psect for function _setup
   622                           
   623  0D69                     l1992:	
   624                           ;incstack = 0
   625                           ; Regs used in _setup: [wreg+status,2+status,0]
   626                           
   627                           
   628                           ;main11s.c: 103:     ANSEL = 0b00000010;
   629  0D69  3002               	movlw	2
   630  0D6A  1683               	bsf	3,5	;RP0=1, select bank3
   631  0D6B  1703               	bsf	3,6	;RP1=1, select bank3
   632  0D6C  0088               	movwf	8	;volatile
   633  0D6D                     l1994:
   634                           
   635                           ;main11s.c: 104:     ANSELH = 0;
   636  0D6D  0189               	clrf	9	;volatile
   637  0D6E                     l1996:
   638                           
   639                           ;main11s.c: 106:     OSCCONbits.IRCF = 0b100;
   640  0D6E  1683               	bsf	3,5	;RP0=1, select bank1
   641  0D6F  1303               	bcf	3,6	;RP1=0, select bank1
   642  0D70  080F               	movf	15,w	;volatile
   643  0D71  398F               	andlw	-113
   644  0D72  3840               	iorlw	64
   645  0D73  008F               	movwf	15	;volatile
   646  0D74                     l1998:
   647                           
   648                           ;main11s.c: 107:     OSCCONbits.SCS = 1;
   649  0D74  140F               	bsf	15,0	;volatile
   650  0D75                     l2000:
   651                           
   652                           ;main11s.c: 109:     TRISA = 0b00100011;
   653  0D75  3023               	movlw	35
   654  0D76  0085               	movwf	5	;volatile
   655  0D77                     l2002:
   656                           
   657                           ;main11s.c: 110:     PORTA = 0;
   658  0D77  1283               	bcf	3,5	;RP0=0, select bank0
   659  0D78  1303               	bcf	3,6	;RP1=0, select bank0
   660  0D79  0185               	clrf	5	;volatile
   661  0D7A                     l2004:
   662                           
   663                           ;main11s.c: 112:     TRISD = 0;
   664  0D7A  1683               	bsf	3,5	;RP0=1, select bank1
   665  0D7B  1303               	bcf	3,6	;RP1=0, select bank1
   666  0D7C  0188               	clrf	8	;volatile
   667  0D7D                     l2006:
   668                           
   669                           ;main11s.c: 113:     PORTD = 0;
   670  0D7D  1283               	bcf	3,5	;RP0=0, select bank0
   671  0D7E  1303               	bcf	3,6	;RP1=0, select bank0
   672  0D7F  0188               	clrf	8	;volatile
   673  0D80                     l2008:
   674                           
   675                           ;main11s.c: 114:     TRISB = 0;
   676  0D80  1683               	bsf	3,5	;RP0=1, select bank1
   677  0D81  1303               	bcf	3,6	;RP1=0, select bank1
   678  0D82  0186               	clrf	6	;volatile
   679  0D83                     l2010:
   680                           
   681                           ;main11s.c: 115:     PORTB = 0;
   682  0D83  1283               	bcf	3,5	;RP0=0, select bank0
   683  0D84  1303               	bcf	3,6	;RP1=0, select bank0
   684  0D85  0186               	clrf	6	;volatile
   685  0D86                     l2012:
   686                           
   687                           ;main11s.c: 116:     valores = 0;
   688  0D86  1683               	bsf	3,5	;RP0=1, select bank1
   689  0D87  1303               	bcf	3,6	;RP1=0, select bank1
   690  0D88  01B5               	clrf	_valores^(0+128)
   691  0D89                     l2014:
   692                           
   693                           ;main11s.c: 117:     if(PORTAbits.RA0){
   694  0D89  1283               	bcf	3,5	;RP0=0, select bank0
   695  0D8A  1303               	bcf	3,6	;RP1=0, select bank0
   696  0D8B  1C05               	btfss	5,0	;volatile
   697  0D8C  2D8E               	goto	u2881
   698  0D8D  2D8F               	goto	u2880
   699  0D8E                     u2881:
   700  0D8E  2DB8               	goto	l2060
   701  0D8F                     u2880:
   702  0D8F                     l2016:
   703                           
   704                           ;main11s.c: 118:         TRISC = 0b00011000;
   705  0D8F  3018               	movlw	24
   706  0D90  1683               	bsf	3,5	;RP0=1, select bank1
   707  0D91  1303               	bcf	3,6	;RP1=0, select bank1
   708  0D92  0087               	movwf	7	;volatile
   709  0D93                     l2018:
   710                           
   711                           ;main11s.c: 119:         PORTC = 0;
   712  0D93  1283               	bcf	3,5	;RP0=0, select bank0
   713  0D94  1303               	bcf	3,6	;RP1=0, select bank0
   714  0D95  0187               	clrf	7	;volatile
   715  0D96                     l2020:
   716                           
   717                           ;main11s.c: 120:         TRISE = 0;
   718  0D96  1683               	bsf	3,5	;RP0=1, select bank1
   719  0D97  1303               	bcf	3,6	;RP1=0, select bank1
   720  0D98  0189               	clrf	9	;volatile
   721  0D99                     l2022:
   722                           
   723                           ;main11s.c: 121:         PORTE = 0;
   724  0D99  1283               	bcf	3,5	;RP0=0, select bank0
   725  0D9A  1303               	bcf	3,6	;RP1=0, select bank0
   726  0D9B  0189               	clrf	9	;volatile
   727  0D9C                     l2024:
   728                           
   729                           ;main11s.c: 123:         SSPCONbits.SSPM = 0b0100;
   730  0D9C  0814               	movf	20,w	;volatile
   731  0D9D  39F0               	andlw	-16
   732  0D9E  3804               	iorlw	4
   733  0D9F  0094               	movwf	20	;volatile
   734  0DA0                     l2026:
   735                           
   736                           ;main11s.c: 124:         SSPCONbits.CKP = 0;
   737  0DA0  1214               	bcf	20,4	;volatile
   738  0DA1                     l2028:
   739                           
   740                           ;main11s.c: 125:         SSPCONbits.SSPEN = 1;
   741  0DA1  1694               	bsf	20,5	;volatile
   742  0DA2                     l2030:
   743                           
   744                           ;main11s.c: 127:         SSPSTATbits.CKE = 1;
   745  0DA2  1683               	bsf	3,5	;RP0=1, select bank1
   746  0DA3  1303               	bcf	3,6	;RP1=0, select bank1
   747  0DA4  1714               	bsf	20,6	;volatile
   748  0DA5                     l2032:
   749                           
   750                           ;main11s.c: 128:         SSPSTATbits.SMP = 0;
   751  0DA5  1394               	bcf	20,7	;volatile
   752  0DA6                     l2034:
   753                           
   754                           ;main11s.c: 130:         TRISBbits.TRISB0 = 1;
   755  0DA6  1406               	bsf	6,0	;volatile
   756  0DA7                     l2036:
   757                           
   758                           ;main11s.c: 131:         TRISBbits.TRISB1 = 1;
   759  0DA7  1486               	bsf	6,1	;volatile
   760  0DA8                     l2038:
   761                           
   762                           ;main11s.c: 132:         OPTION_REGbits.nRBPU = 0;
   763  0DA8  1381               	bcf	1,7	;volatile
   764  0DA9                     l2040:
   765                           
   766                           ;main11s.c: 133:         WPUBbits.WPUB0 = 1;
   767  0DA9  1415               	bsf	21,0	;volatile
   768  0DAA                     l2042:
   769                           
   770                           ;main11s.c: 134:         WPUBbits.WPUB1 = 1;
   771  0DAA  1495               	bsf	21,1	;volatile
   772  0DAB                     l2044:
   773                           
   774                           ;main11s.c: 137:         INTCONbits.RBIE = 1;
   775  0DAB  158B               	bsf	11,3	;volatile
   776  0DAC                     l2046:
   777                           
   778                           ;main11s.c: 138:         IOCBbits.IOCB0 = 1;
   779  0DAC  1416               	bsf	22,0	;volatile
   780  0DAD                     l2048:
   781                           
   782                           ;main11s.c: 139:         IOCBbits.IOCB1 = 1;
   783  0DAD  1496               	bsf	22,1	;volatile
   784  0DAE                     l2050:
   785                           
   786                           ;main11s.c: 140:         INTCONbits.RBIF = 0;
   787  0DAE  100B               	bcf	11,0	;volatile
   788  0DAF                     l2052:
   789                           
   790                           ;main11s.c: 143:         PIR1bits.SSPIF = 0;
   791  0DAF  1283               	bcf	3,5	;RP0=0, select bank0
   792  0DB0  1303               	bcf	3,6	;RP1=0, select bank0
   793  0DB1  118C               	bcf	12,3	;volatile
   794  0DB2                     l2054:
   795                           
   796                           ;main11s.c: 144:         PIE1bits.SSPIE = 1;
   797  0DB2  1683               	bsf	3,5	;RP0=1, select bank1
   798  0DB3  1303               	bcf	3,6	;RP1=0, select bank1
   799  0DB4  158C               	bsf	12,3	;volatile
   800  0DB5                     l2056:
   801                           
   802                           ;main11s.c: 145:         INTCONbits.PEIE = 1;
   803  0DB5  170B               	bsf	11,6	;volatile
   804  0DB6                     l2058:
   805                           
   806                           ;main11s.c: 146:         INTCONbits.GIE = 1;
   807  0DB6  178B               	bsf	11,7	;volatile
   808                           
   809                           ;main11s.c: 147:     }
   810  0DB7  2DF7               	goto	l111
   811  0DB8                     l2060:
   812                           
   813                           ;main11s.c: 151:         TRISC = 0b00011000;
   814  0DB8  3018               	movlw	24
   815  0DB9  1683               	bsf	3,5	;RP0=1, select bank1
   816  0DBA  1303               	bcf	3,6	;RP1=0, select bank1
   817  0DBB  0087               	movwf	7	;volatile
   818  0DBC                     l2062:
   819                           
   820                           ;main11s.c: 152:         PORTC = 0;
   821  0DBC  1283               	bcf	3,5	;RP0=0, select bank0
   822  0DBD  1303               	bcf	3,6	;RP1=0, select bank0
   823  0DBE  0187               	clrf	7	;volatile
   824  0DBF                     l2064:
   825                           
   826                           ;main11s.c: 155:         SSPCONbits.SSPM = 0b0100;
   827  0DBF  0814               	movf	20,w	;volatile
   828  0DC0  39F0               	andlw	-16
   829  0DC1  3804               	iorlw	4
   830  0DC2  0094               	movwf	20	;volatile
   831  0DC3                     l2066:
   832                           
   833                           ;main11s.c: 156:         SSPCONbits.CKP = 0;
   834  0DC3  1214               	bcf	20,4	;volatile
   835  0DC4                     l2068:
   836                           
   837                           ;main11s.c: 157:         SSPCONbits.SSPEN = 1;
   838  0DC4  1694               	bsf	20,5	;volatile
   839  0DC5                     l2070:
   840                           
   841                           ;main11s.c: 159:         SSPSTATbits.CKE = 1;
   842  0DC5  1683               	bsf	3,5	;RP0=1, select bank1
   843  0DC6  1303               	bcf	3,6	;RP1=0, select bank1
   844  0DC7  1714               	bsf	20,6	;volatile
   845  0DC8                     l2072:
   846                           
   847                           ;main11s.c: 160:         SSPSTATbits.SMP = 0;
   848  0DC8  1394               	bcf	20,7	;volatile
   849  0DC9                     l2074:
   850                           
   851                           ;main11s.c: 162:         _delay((unsigned long)((100)*(1000000/4000000.0)));
   852  0DC9  3007               	movlw	7
   853  0DCA  1683               	bsf	3,5	;RP0=1, select bank1
   854  0DCB  1303               	bcf	3,6	;RP1=0, select bank1
   855  0DCC  00B0               	movwf	??_setup^(0+128)
   856  0DCD                     u2977:
   857  0DCD  0BB0               	decfsz	??_setup^(0+128),f
   858  0DCE  2DCD               	goto	u2977
   859  0DCF  0000               	nop
   860  0DD0                     l2076:
   861                           
   862                           ;main11s.c: 164:         TRISCbits.TRISC2 = 1;
   863  0DD0  1683               	bsf	3,5	;RP0=1, select bank1
   864  0DD1  1303               	bcf	3,6	;RP1=0, select bank1
   865  0DD2  1507               	bsf	7,2	;volatile
   866  0DD3                     l2078:
   867                           
   868                           ;main11s.c: 165:         PR2 = 0b01111100;
   869  0DD3  307C               	movlw	124
   870  0DD4  0092               	movwf	18	;volatile
   871  0DD5                     l2080:
   872                           
   873                           ;main11s.c: 168:         CCP1CON = 0;
   874  0DD5  1283               	bcf	3,5	;RP0=0, select bank0
   875  0DD6  1303               	bcf	3,6	;RP1=0, select bank0
   876  0DD7  0197               	clrf	23	;volatile
   877  0DD8                     l2082:
   878                           
   879                           ;main11s.c: 169:         CCP1CONbits.P1M = 0;
   880  0DD8  303F               	movlw	-193
   881  0DD9  0597               	andwf	23,f	;volatile
   882  0DDA                     l2084:
   883                           
   884                           ;main11s.c: 170:         CCP1CONbits.CCP1M = 0b1100;
   885  0DDA  0817               	movf	23,w	;volatile
   886  0DDB  39F0               	andlw	-16
   887  0DDC  380C               	iorlw	12
   888  0DDD  0097               	movwf	23	;volatile
   889  0DDE                     l2086:
   890                           
   891                           ;main11s.c: 172:         CCPR1L = 125>>2;
   892  0DDE  301F               	movlw	31
   893  0DDF  0095               	movwf	21	;volatile
   894                           
   895                           ;main11s.c: 173:         CCP1CONbits.DC1B = 125 & 0b11;
   896  0DE0  0817               	movf	23,w	;volatile
   897  0DE1  39CF               	andlw	-49
   898  0DE2  3810               	iorlw	16
   899  0DE3  0097               	movwf	23	;volatile
   900  0DE4                     l2088:
   901                           
   902                           ;main11s.c: 175:         PIR1bits.TMR2IF = 0;
   903  0DE4  108C               	bcf	12,1	;volatile
   904  0DE5                     l2090:
   905                           
   906                           ;main11s.c: 176:         T2CON = 0b00000101;
   907  0DE5  3005               	movlw	5
   908  0DE6  0092               	movwf	18	;volatile
   909  0DE7                     l108:	
   910                           ;main11s.c: 177:         while(!PIR1bits.TMR2IF);
   911                           
   912  0DE7  1C8C               	btfss	12,1	;volatile
   913  0DE8  2DEA               	goto	u2891
   914  0DE9  2DEB               	goto	u2890
   915  0DEA                     u2891:
   916  0DEA  2DE7               	goto	l108
   917  0DEB                     u2890:
   918  0DEB                     l110:
   919                           
   920                           ;main11s.c: 178:         PIR1bits.TMR2IF = 0;
   921  0DEB  108C               	bcf	12,1	;volatile
   922                           
   923                           ;main11s.c: 179:         TRISCbits.TRISC2 = 0;
   924  0DEC  1683               	bsf	3,5	;RP0=1, select bank1
   925  0DED  1303               	bcf	3,6	;RP1=0, select bank1
   926  0DEE  1107               	bcf	7,2	;volatile
   927                           
   928                           ;main11s.c: 182:         PIR1bits.SSPIF = 0;
   929  0DEF  1283               	bcf	3,5	;RP0=0, select bank0
   930  0DF0  1303               	bcf	3,6	;RP1=0, select bank0
   931  0DF1  118C               	bcf	12,3	;volatile
   932                           
   933                           ;main11s.c: 183:         PIE1bits.SSPIE = 1;
   934  0DF2  1683               	bsf	3,5	;RP0=1, select bank1
   935  0DF3  1303               	bcf	3,6	;RP1=0, select bank1
   936  0DF4  158C               	bsf	12,3	;volatile
   937                           
   938                           ;main11s.c: 184:         INTCONbits.PEIE = 1;
   939  0DF5  170B               	bsf	11,6	;volatile
   940                           
   941                           ;main11s.c: 185:         INTCONbits.GIE = 1;
   942  0DF6  178B               	bsf	11,7	;volatile
   943  0DF7                     l111:
   944  0DF7  0008               	return
   945  0DF8                     __end_of_setup:
   946                           
   947                           	psect	text2
   948  0CDC                     __ptext2:	
   949 ;; *************** function _isr *****************
   950 ;; Defined at:
   951 ;;		line 57 in file "main11s.c"
   952 ;; Parameters:    Size  Location     Type
   953 ;;		None
   954 ;; Auto vars:     Size  Location     Type
   955 ;;		None
   956 ;; Return value:  Size  Location     Type
   957 ;;                  1    wreg      void 
   958 ;; Registers used:
   959 ;;		wreg, status,2, status,0, btemp+1, pclath, cstack
   960 ;; Tracked objects:
   961 ;;		On entry : 0/0
   962 ;;		On exit  : 0/0
   963 ;;		Unchanged: 0/0
   964 ;; Data sizes:     COMMON   BANK0   BANK1   BANK3   BANK2
   965 ;;      Params:         0       0       0       0       0
   966 ;;      Locals:         0       0       0       0       0
   967 ;;      Temps:          0       0       5       0       0
   968 ;;      Totals:         0       0       5       0       0
   969 ;;Total ram usage:        5 bytes
   970 ;; Hardware stack levels used: 1
   971 ;; Hardware stack levels required when called: 3
   972 ;; This function calls:
   973 ;;		_map
   974 ;; This function is called by:
   975 ;;		Interrupt level 1
   976 ;; This function uses a non-reentrant model
   977 ;;
   978                           
   979  0CDC                     _isr:	
   980                           ;psect for function _isr
   981                           
   982  0CDC                     i1l2092:
   983                           
   984                           ;main11s.c: 58:     if(PORTAbits.RA0){
   985  0CDC  1283               	bcf	3,5	;RP0=0, select bank0
   986  0CDD  1303               	bcf	3,6	;RP1=0, select bank0
   987  0CDE  1C05               	btfss	5,0	;volatile
   988  0CDF  2CE1               	goto	u290_21
   989  0CE0  2CE2               	goto	u290_20
   990  0CE1                     u290_21:
   991  0CE1  2D19               	goto	i1l2118
   992  0CE2                     u290_20:
   993  0CE2                     i1l2094:
   994                           
   995                           ;main11s.c: 59:         if(PIR1bits.SSPIF){
   996  0CE2  1D8C               	btfss	12,3	;volatile
   997  0CE3  2CE5               	goto	u291_21
   998  0CE4  2CE6               	goto	u291_20
   999  0CE5                     u291_21:
  1000  0CE5  2CFF               	goto	i1l2104
  1001  0CE6                     u291_20:
  1002  0CE6                     i1l2096:
  1003                           
  1004                           ;main11s.c: 61:             SSPBUF = valores;
  1005  0CE6  1683               	bsf	3,5	;RP0=1, select bank1
  1006  0CE7  1303               	bcf	3,6	;RP1=0, select bank1
  1007  0CE8  0835               	movf	_valores^(0+128),w
  1008  0CE9  1283               	bcf	3,5	;RP0=0, select bank0
  1009  0CEA  1303               	bcf	3,6	;RP1=0, select bank0
  1010  0CEB  0093               	movwf	19	;volatile
  1011  0CEC                     i1l2098:
  1012                           
  1013                           ;main11s.c: 62:             if (val_temporal != 0xFF){
  1014  0CEC  1683               	bsf	3,5	;RP0=1, select bank1
  1015  0CED  1303               	bcf	3,6	;RP1=0, select bank1
  1016  0CEE  0A33               	incf	_val_temporal^(0+128),w
  1017  0CEF  1903               	btfsc	3,2
  1018  0CF0  2CF2               	goto	u292_21
  1019  0CF1  2CF3               	goto	u292_20
  1020  0CF2                     u292_21:
  1021  0CF2  2CFD               	goto	i1l2102
  1022  0CF3                     u292_20:
  1023  0CF3                     i1l2100:
  1024                           
  1025                           ;main11s.c: 63:                 PORTD = valores;
  1026  0CF3  0835               	movf	_valores^(0+128),w
  1027  0CF4  1283               	bcf	3,5	;RP0=0, select bank0
  1028  0CF5  1303               	bcf	3,6	;RP1=0, select bank0
  1029  0CF6  0088               	movwf	8	;volatile
  1030                           
  1031                           ;main11s.c: 64:                 SSPBUF = valores;
  1032  0CF7  1683               	bsf	3,5	;RP0=1, select bank1
  1033  0CF8  1303               	bcf	3,6	;RP1=0, select bank1
  1034  0CF9  0835               	movf	_valores^(0+128),w
  1035  0CFA  1283               	bcf	3,5	;RP0=0, select bank0
  1036  0CFB  1303               	bcf	3,6	;RP1=0, select bank0
  1037  0CFC  0093               	movwf	19	;volatile
  1038  0CFD                     i1l2102:
  1039                           
  1040                           ;main11s.c: 67:         PIR1bits.SSPIF = 0;
  1041  0CFD  1283               	bcf	3,5	;RP0=0, select bank0
  1042  0CFE  118C               	bcf	12,3	;volatile
  1043  0CFF                     i1l2104:
  1044                           
  1045                           ;main11s.c: 70:         if(INTCONbits.RBIF){
  1046  0CFF  1C0B               	btfss	11,0	;volatile
  1047  0D00  2D02               	goto	u293_21
  1048  0D01  2D03               	goto	u293_20
  1049  0D02                     u293_21:
  1050  0D02  2D5E               	goto	i1l95
  1051  0D03                     u293_20:
  1052  0D03                     i1l2106:
  1053                           
  1054                           ;main11s.c: 71:             if (!PORTBbits.RB0) {
  1055  0D03  1806               	btfsc	6,0	;volatile
  1056  0D04  2D06               	goto	u294_21
  1057  0D05  2D07               	goto	u294_20
  1058  0D06                     u294_21:
  1059  0D06  2D0E               	goto	i1l2112
  1060  0D07                     u294_20:
  1061  0D07                     i1l2108:
  1062                           
  1063                           ;main11s.c: 72:                 valores++;
  1064  0D07  3001               	movlw	1
  1065  0D08  1683               	bsf	3,5	;RP0=1, select bank1
  1066  0D09  1303               	bcf	3,6	;RP1=0, select bank1
  1067  0D0A  00AB               	movwf	??_isr^(0+128)
  1068  0D0B  082B               	movf	??_isr^(0+128),w
  1069  0D0C  07B5               	addwf	_valores^(0+128),f
  1070  0D0D                     i1l2110:
  1071                           
  1072                           ;main11s.c: 73:                 INTCONbits.RBIF = 0;}
  1073  0D0D  100B               	bcf	11,0	;volatile
  1074  0D0E                     i1l2112:
  1075                           
  1076                           ;main11s.c: 75:             if (!PORTBbits.RB1){
  1077  0D0E  1283               	bcf	3,5	;RP0=0, select bank0
  1078  0D0F  1886               	btfsc	6,1	;volatile
  1079  0D10  2D12               	goto	u295_21
  1080  0D11  2D13               	goto	u295_20
  1081  0D12                     u295_21:
  1082  0D12  2D5E               	goto	i1l93
  1083  0D13                     u295_20:
  1084  0D13                     i1l2114:
  1085                           
  1086                           ;main11s.c: 76:                 valores--;
  1087  0D13  3001               	movlw	1
  1088  0D14  1683               	bsf	3,5	;RP0=1, select bank1
  1089  0D15  1303               	bcf	3,6	;RP1=0, select bank1
  1090  0D16  02B5               	subwf	_valores^(0+128),f
  1091  0D17                     i1l2116:
  1092                           
  1093                           ;main11s.c: 77:                 INTCONbits.RBIF = 0;}
  1094  0D17  100B               	bcf	11,0	;volatile
  1095  0D18  2D5E               	goto	i1l95
  1096  0D19                     i1l2118:
  1097                           
  1098                           ;main11s.c: 82:          if(ADCON0bits.CHS == 0){
  1099  0D19  0C1F               	rrf	31,w	;volatile
  1100  0D1A  1683               	bsf	3,5	;RP0=1, select bank1
  1101  0D1B  1303               	bcf	3,6	;RP1=0, select bank1
  1102  0D1C  00AB               	movwf	??_isr^(0+128)
  1103  0D1D  0C2B               	rrf	??_isr^(0+128),w
  1104  0D1E  390F               	andlw	15
  1105  0D1F  3A00               	xorlw	0
  1106  0D20  1D03               	skipz
  1107  0D21  2D23               	goto	u296_21
  1108  0D22  2D24               	goto	u296_20
  1109  0D23                     u296_21:
  1110  0D23  2D5E               	goto	i1l95
  1111  0D24                     u296_20:
  1112  0D24                     i1l2120:
  1113                           
  1114                           ;main11s.c: 83:             CCPR = map(SSPBUF, 0, 255, 0, 503);
  1115  0D24  01A5               	clrf	map@x0^(0+128)
  1116  0D25  30FF               	movlw	255
  1117  0D26  00AB               	movwf	??_isr^(0+128)
  1118  0D27  082B               	movf	??_isr^(0+128),w
  1119  0D28  00A6               	movwf	map@x1^(0+128)
  1120  0D29  3000               	movlw	0
  1121  0D2A  00A7               	movwf	map@y0^(0+128)
  1122  0D2B  00A8               	movwf	(map@y0+1)^(0+128)
  1123  0D2C  30F7               	movlw	247
  1124  0D2D  00A9               	movwf	map@y1^(0+128)
  1125  0D2E  3001               	movlw	1
  1126  0D2F  00AA               	movwf	(map@y1^(0+128)+1)
  1127  0D30  1283               	bcf	3,5	;RP0=0, select bank0
  1128  0D31  1303               	bcf	3,6	;RP1=0, select bank0
  1129  0D32  0813               	movf	19,w	;volatile
  1130  0D33  120A  158A  2694  120A  158A  	fcall	_map
  1131  0D38  1683               	bsf	3,5	;RP0=1, select bank1
  1132  0D39  1303               	bcf	3,6	;RP1=0, select bank1
  1133  0D3A  0826               	movf	(?_map+1)^(0+128),w
  1134  0D3B  00B2               	movwf	(_CCPR+1)^(0+128)
  1135  0D3C  0825               	movf	?_map^(0+128),w
  1136  0D3D  00B1               	movwf	_CCPR^(0+128)
  1137  0D3E                     i1l2122:
  1138                           
  1139                           ;main11s.c: 84:             CCPR1L = (uint8_t)(CCPR>>2);
  1140  0D3E  0832               	movf	(_CCPR+1)^(0+128),w
  1141  0D3F  00AC               	movwf	(??_isr^(0+128)+1)
  1142  0D40  0831               	movf	_CCPR^(0+128),w
  1143  0D41  00AB               	movwf	??_isr^(0+128)
  1144  0D42  1003               	clrc
  1145  0D43  0CAC               	rrf	(??_isr^(0+128)+1),f
  1146  0D44  0CAB               	rrf	??_isr^(0+128),f
  1147  0D45  1003               	clrc
  1148  0D46  0CAC               	rrf	(??_isr^(0+128)+1),f
  1149  0D47  0CAB               	rrf	??_isr^(0+128),f
  1150  0D48  082B               	movf	??_isr^(0+128),w
  1151  0D49  1283               	bcf	3,5	;RP0=0, select bank0
  1152  0D4A  1303               	bcf	3,6	;RP1=0, select bank0
  1153  0D4B  0095               	movwf	21	;volatile
  1154  0D4C                     i1l2124:
  1155                           
  1156                           ;main11s.c: 85:             CCP1CONbits.DC1B = CCPR & 0b11;
  1157  0D4C  1683               	bsf	3,5	;RP0=1, select bank1
  1158  0D4D  1303               	bcf	3,6	;RP1=0, select bank1
  1159  0D4E  0831               	movf	_CCPR^(0+128),w
  1160  0D4F  3903               	andlw	3
  1161  0D50  00AB               	movwf	??_isr^(0+128)
  1162  0D51  0EAB               	swapf	??_isr^(0+128),f
  1163  0D52  1283               	bcf	3,5	;RP0=0, select bank0
  1164  0D53  1303               	bcf	3,6	;RP1=0, select bank0
  1165  0D54  0817               	movf	23,w	;volatile
  1166  0D55  1683               	bsf	3,5	;RP0=1, select bank1
  1167  0D56  1303               	bcf	3,6	;RP1=0, select bank1
  1168  0D57  062B               	xorwf	??_isr^(0+128),w
  1169  0D58  39CF               	andlw	-49
  1170  0D59  062B               	xorwf	??_isr^(0+128),w
  1171  0D5A  1283               	bcf	3,5	;RP0=0, select bank0
  1172  0D5B  1303               	bcf	3,6	;RP1=0, select bank0
  1173  0D5C  0097               	movwf	23	;volatile
  1174  0D5D  2D5E               	goto	i1l95
  1175  0D5E                     i1l93:	
  1176                           ;main11s.c: 87:     }
  1177                           
  1178  0D5E                     i1l95:
  1179  0D5E  1683               	bsf	3,5	;RP0=1, select bank1
  1180  0D5F  1303               	bcf	3,6	;RP1=0, select bank1
  1181  0D60  082F               	movf	(??_isr+4)^(0+128),w
  1182  0D61  00FF               	movwf	btemp+1
  1183  0D62  082E               	movf	(??_isr+3)^(0+128),w
  1184  0D63  008A               	movwf	10
  1185  0D64  0E2D               	swapf	(??_isr+2)^(0+128),w
  1186  0D65  0083               	movwf	3
  1187  0D66  0EFE               	swapf	btemp,f
  1188  0D67  0E7E               	swapf	btemp,w
  1189  0D68  0009               	retfie
  1190  0D69                     __end_of_isr:
  1191                           
  1192                           	psect	intentry
  1193  0004                     __pintentry:	
  1194                           ;incstack = 0
  1195                           ; Regs used in _isr: [wreg+status,2+status,0+btemp+1+pclath+cstack]
  1196                           
  1197  0004                     interrupt_function:
  1198  007E                     saved_w	set	btemp
  1199  0004  00FE               	movwf	btemp
  1200  0005  0E03               	swapf	3,w
  1201  0006  1683               	bsf	3,5	;RP0=1, select bank1
  1202  0007  1303               	bcf	3,6	;RP1=0, select bank1
  1203  0008  00AD               	movwf	(??_isr+2)^(0+128)
  1204  0009  080A               	movf	10,w
  1205  000A  00AE               	movwf	(??_isr+3)^(0+128)
  1206  000B  087F               	movf	btemp+1,w
  1207  000C  00AF               	movwf	(??_isr+4)^(0+128)
  1208  000D  120A  158A  2CDC   	ljmp	_isr
  1209                           
  1210                           	psect	text3
  1211  0E94                     __ptext3:	
  1212 ;; *************** function _map *****************
  1213 ;; Defined at:
  1214 ;;		line 189 in file "main11s.c"
  1215 ;; Parameters:    Size  Location     Type
  1216 ;;  x               1    wreg     unsigned char 
  1217 ;;  x0              1    5[BANK1 ] unsigned char 
  1218 ;;  x1              1    6[BANK1 ] unsigned char 
  1219 ;;  y0              2    7[BANK1 ] unsigned short 
  1220 ;;  y1              2    9[BANK1 ] unsigned short 
  1221 ;; Auto vars:     Size  Location     Type
  1222 ;;  x               1   78[BANK0 ] unsigned char 
  1223 ;; Return value:  Size  Location     Type
  1224 ;;                  2    5[BANK1 ] unsigned short 
  1225 ;; Registers used:
  1226 ;;		wreg, status,2, status,0, btemp+1, pclath, cstack
  1227 ;; Tracked objects:
  1228 ;;		On entry : 0/0
  1229 ;;		On exit  : 0/0
  1230 ;;		Unchanged: 0/0
  1231 ;; Data sizes:     COMMON   BANK0   BANK1   BANK3   BANK2
  1232 ;;      Params:         0       0       6       0       0
  1233 ;;      Locals:         0       1       0       0       0
  1234 ;;      Temps:          0       0       0       0       0
  1235 ;;      Totals:         0       1       6       0       0
  1236 ;;Total ram usage:        7 bytes
  1237 ;; Hardware stack levels used: 1
  1238 ;; Hardware stack levels required when called: 2
  1239 ;; This function calls:
  1240 ;;		___fladd
  1241 ;;		___fldiv
  1242 ;;		___flmul
  1243 ;;		___fltol
  1244 ;;		___xxtofl
  1245 ;; This function is called by:
  1246 ;;		_isr
  1247 ;; This function uses a non-reentrant model
  1248 ;;
  1249                           
  1250  0E94                     _map:	
  1251                           ;psect for function _map
  1252                           
  1253                           
  1254                           ;incstack = 0
  1255                           ; Regs used in _map: [wreg+status,2+status,0+btemp+1+pclath+cstack]
  1256                           ;map@x stored from wreg
  1257  0E94  1283               	bcf	3,5	;RP0=0, select bank0
  1258  0E95  1303               	bcf	3,6	;RP1=0, select bank0
  1259  0E96  00EE               	movwf	map@x
  1260  0E97                     i1l1988:
  1261                           
  1262                           ;main11s.c: 189: unsigned short map(uint8_t x, uint8_t x0, uint8_t x1,;main11s.c: 190:  
      +                                     unsigned short y0, unsigned short y1){;main11s.c: 191:     return (unsigned s
      +                          hort)(y0+((float)(y1-y0)/(x1-x0))*(x-x0));
  1263  0E97  1683               	bsf	3,5	;RP0=1, select bank1
  1264  0E98  1303               	bcf	3,6	;RP1=0, select bank1
  1265  0E99  0827               	movf	map@y0^(0+128),w
  1266  0E9A  00F0               	movwf	___xxtofl@val
  1267  0E9B  0828               	movf	(map@y0+1)^(0+128),w
  1268  0E9C  00F1               	movwf	___xxtofl@val+1
  1269  0E9D  01F2               	clrf	___xxtofl@val+2
  1270  0E9E  01F3               	clrf	___xxtofl@val+3
  1271  0E9F  3000               	movlw	0
  1272  0EA0  120A  158A  2746  120A  158A  	fcall	___xxtofl
  1273  0EA5  0873               	movf	?___xxtofl+3,w
  1274  0EA6  1283               	bcf	3,5	;RP0=0, select bank0
  1275  0EA7  1303               	bcf	3,6	;RP1=0, select bank0
  1276  0EA8  00DB               	movwf	___fladd@a+3
  1277  0EA9  0872               	movf	?___xxtofl+2,w
  1278  0EAA  00DA               	movwf	___fladd@a+2
  1279  0EAB  0871               	movf	?___xxtofl+1,w
  1280  0EAC  00D9               	movwf	___fladd@a+1
  1281  0EAD  0870               	movf	?___xxtofl,w
  1282  0EAE  00D8               	movwf	___fladd@a
  1283  0EAF  1683               	bsf	3,5	;RP0=1, select bank1
  1284  0EB0  1303               	bcf	3,6	;RP1=0, select bank1
  1285  0EB1  0827               	movf	map@y0^(0+128),w
  1286  0EB2  0229               	subwf	map@y1^(0+128),w
  1287  0EB3  00F0               	movwf	___xxtofl@val
  1288  0EB4  0828               	movf	(map@y0+1)^(0+128),w
  1289  0EB5  1C03               	skipc
  1290  0EB6  0A28               	incf	(map@y0+1)^(0+128),w
  1291  0EB7  022A               	subwf	(map@y1+1)^(0+128),w
  1292  0EB8  00F1               	movwf	___xxtofl@val+1
  1293  0EB9  01F2               	clrf	___xxtofl@val+2
  1294  0EBA  01F3               	clrf	___xxtofl@val+3
  1295  0EBB  3000               	movlw	0
  1296  0EBC  120A  158A  2746  120A  158A  	fcall	___xxtofl
  1297  0EC1  0873               	movf	?___xxtofl+3,w
  1298  0EC2  1283               	bcf	3,5	;RP0=0, select bank0
  1299  0EC3  1303               	bcf	3,6	;RP1=0, select bank0
  1300  0EC4  00A7               	movwf	___fldiv@b+3
  1301  0EC5  0872               	movf	?___xxtofl+2,w
  1302  0EC6  00A6               	movwf	___fldiv@b+2
  1303  0EC7  0871               	movf	?___xxtofl+1,w
  1304  0EC8  00A5               	movwf	___fldiv@b+1
  1305  0EC9  0870               	movf	?___xxtofl,w
  1306  0ECA  00A4               	movwf	___fldiv@b
  1307  0ECB  1683               	bsf	3,5	;RP0=1, select bank1
  1308  0ECC  1303               	bcf	3,6	;RP1=0, select bank1
  1309  0ECD  0825               	movf	map@x0^(0+128),w
  1310  0ECE  0226               	subwf	map@x1^(0+128),w
  1311  0ECF  00F0               	movwf	___xxtofl@val
  1312  0ED0  01F1               	clrf	___xxtofl@val+1
  1313  0ED1  1C03               	skipc
  1314  0ED2  03F1               	decf	___xxtofl@val+1,f
  1315  0ED3  01F2               	clrf	___xxtofl@val+2
  1316  0ED4  1BF1               	btfsc	___xxtofl@val+1,7
  1317  0ED5  03F2               	decf	___xxtofl@val+2,f
  1318  0ED6  0872               	movf	___xxtofl@val+2,w
  1319  0ED7  00F3               	movwf	___xxtofl@val+3
  1320  0ED8  3001               	movlw	1
  1321  0ED9  120A  158A  2746  120A  158A  	fcall	___xxtofl
  1322  0EDE  0873               	movf	?___xxtofl+3,w
  1323  0EDF  1283               	bcf	3,5	;RP0=0, select bank0
  1324  0EE0  1303               	bcf	3,6	;RP1=0, select bank0
  1325  0EE1  00A3               	movwf	___fldiv@a+3
  1326  0EE2  0872               	movf	?___xxtofl+2,w
  1327  0EE3  00A2               	movwf	___fldiv@a+2
  1328  0EE4  0871               	movf	?___xxtofl+1,w
  1329  0EE5  00A1               	movwf	___fldiv@a+1
  1330  0EE6  0870               	movf	?___xxtofl,w
  1331  0EE7  00A0               	movwf	___fldiv@a
  1332  0EE8  120A  118A  2610  120A  158A  	fcall	___fldiv
  1333  0EED  1283               	bcf	3,5	;RP0=0, select bank0
  1334  0EEE  1303               	bcf	3,6	;RP1=0, select bank0
  1335  0EEF  0823               	movf	?___fldiv+3,w
  1336  0EF0  00C1               	movwf	___flmul@a+3
  1337  0EF1  0822               	movf	?___fldiv+2,w
  1338  0EF2  00C0               	movwf	___flmul@a+2
  1339  0EF3  0821               	movf	?___fldiv+1,w
  1340  0EF4  00BF               	movwf	___flmul@a+1
  1341  0EF5  0820               	movf	?___fldiv,w
  1342  0EF6  00BE               	movwf	___flmul@a
  1343  0EF7  1683               	bsf	3,5	;RP0=1, select bank1
  1344  0EF8  1303               	bcf	3,6	;RP1=0, select bank1
  1345  0EF9  0825               	movf	map@x0^(0+128),w
  1346  0EFA  1283               	bcf	3,5	;RP0=0, select bank0
  1347  0EFB  1303               	bcf	3,6	;RP1=0, select bank0
  1348  0EFC  026E               	subwf	map@x,w
  1349  0EFD  00F0               	movwf	___xxtofl@val
  1350  0EFE  01F1               	clrf	___xxtofl@val+1
  1351  0EFF  1C03               	skipc
  1352  0F00  03F1               	decf	___xxtofl@val+1,f
  1353  0F01  01F2               	clrf	___xxtofl@val+2
  1354  0F02  1BF1               	btfsc	___xxtofl@val+1,7
  1355  0F03  03F2               	decf	___xxtofl@val+2,f
  1356  0F04  0872               	movf	___xxtofl@val+2,w
  1357  0F05  00F3               	movwf	___xxtofl@val+3
  1358  0F06  3001               	movlw	1
  1359  0F07  120A  158A  2746  120A  158A  	fcall	___xxtofl
  1360  0F0C  0873               	movf	?___xxtofl+3,w
  1361  0F0D  1283               	bcf	3,5	;RP0=0, select bank0
  1362  0F0E  1303               	bcf	3,6	;RP1=0, select bank0
  1363  0F0F  00BD               	movwf	___flmul@b+3
  1364  0F10  0872               	movf	?___xxtofl+2,w
  1365  0F11  00BC               	movwf	___flmul@b+2
  1366  0F12  0871               	movf	?___xxtofl+1,w
  1367  0F13  00BB               	movwf	___flmul@b+1
  1368  0F14  0870               	movf	?___xxtofl,w
  1369  0F15  00BA               	movwf	___flmul@b
  1370  0F16  120A  118A  2027  120A  158A  	fcall	___flmul
  1371  0F1B  1283               	bcf	3,5	;RP0=0, select bank0
  1372  0F1C  1303               	bcf	3,6	;RP1=0, select bank0
  1373  0F1D  083D               	movf	?___flmul+3,w
  1374  0F1E  00D7               	movwf	___fladd@b+3
  1375  0F1F  083C               	movf	?___flmul+2,w
  1376  0F20  00D6               	movwf	___fladd@b+2
  1377  0F21  083B               	movf	?___flmul+1,w
  1378  0F22  00D5               	movwf	___fladd@b+1
  1379  0F23  083A               	movf	?___flmul,w
  1380  0F24  00D4               	movwf	___fladd@b
  1381  0F25  120A  118A  2388  120A  158A  	fcall	___fladd
  1382  0F2A  1283               	bcf	3,5	;RP0=0, select bank0
  1383  0F2B  1303               	bcf	3,6	;RP1=0, select bank0
  1384  0F2C  0857               	movf	?___fladd+3,w
  1385  0F2D  00EB               	movwf	___fltol@f1+3
  1386  0F2E  0856               	movf	?___fladd+2,w
  1387  0F2F  00EA               	movwf	___fltol@f1+2
  1388  0F30  0855               	movf	?___fladd+1,w
  1389  0F31  00E9               	movwf	___fltol@f1+1
  1390  0F32  0854               	movf	?___fladd,w
  1391  0F33  00E8               	movwf	___fltol@f1
  1392  0F34  120A  158A  25F8  120A  158A  	fcall	___fltol
  1393  0F39  1283               	bcf	3,5	;RP0=0, select bank0
  1394  0F3A  1303               	bcf	3,6	;RP1=0, select bank0
  1395  0F3B  0869               	movf	?___fltol+1,w
  1396  0F3C  1683               	bsf	3,5	;RP0=1, select bank1
  1397  0F3D  1303               	bcf	3,6	;RP1=0, select bank1
  1398  0F3E  00A6               	movwf	(?_map+1)^(0+128)
  1399  0F3F  1283               	bcf	3,5	;RP0=0, select bank0
  1400  0F40  1303               	bcf	3,6	;RP1=0, select bank0
  1401  0F41  0868               	movf	?___fltol,w
  1402  0F42  1683               	bsf	3,5	;RP0=1, select bank1
  1403  0F43  1303               	bcf	3,6	;RP1=0, select bank1
  1404  0F44  00A5               	movwf	?_map^(0+128)
  1405  0F45                     i1l114:
  1406  0F45  0008               	return
  1407  0F46                     __end_of_map:
  1408                           
  1409                           	psect	text4
  1410  0F46                     __ptext4:	
  1411 ;; *************** function ___xxtofl *****************
  1412 ;; Defined at:
  1413 ;;		line 10 in file "C:\Program Files\Microchip\xc8\v2.35\pic\sources\c90\common\xxtofl.c"
  1414 ;; Parameters:    Size  Location     Type
  1415 ;;  sign            1    wreg     unsigned char 
  1416 ;;  val             4    0[COMMON] long 
  1417 ;; Auto vars:     Size  Location     Type
  1418 ;;  sign            1    8[COMMON] unsigned char 
  1419 ;;  arg             4   10[COMMON] unsigned long 
  1420 ;;  exp             1    9[COMMON] unsigned char 
  1421 ;; Return value:  Size  Location     Type
  1422 ;;                  4    0[COMMON] unsigned char 
  1423 ;; Registers used:
  1424 ;;		wreg, status,2, status,0
  1425 ;; Tracked objects:
  1426 ;;		On entry : 0/0
  1427 ;;		On exit  : 0/0
  1428 ;;		Unchanged: 0/0
  1429 ;; Data sizes:     COMMON   BANK0   BANK1   BANK3   BANK2
  1430 ;;      Params:         4       0       0       0       0
  1431 ;;      Locals:         6       0       0       0       0
  1432 ;;      Temps:          4       0       0       0       0
  1433 ;;      Totals:        14       0       0       0       0
  1434 ;;Total ram usage:       14 bytes
  1435 ;; Hardware stack levels used: 1
  1436 ;; This function calls:
  1437 ;;		Nothing
  1438 ;; This function is called by:
  1439 ;;		_map
  1440 ;; This function uses a non-reentrant model
  1441 ;;
  1442                           
  1443  0F46                     ___xxtofl:	
  1444                           ;psect for function ___xxtofl
  1445                           
  1446                           
  1447                           ;incstack = 0
  1448                           ; Regs used in ___xxtofl: [wreg+status,2+status,0]
  1449                           ;___xxtofl@sign stored from wreg
  1450  0F46  00F8               	movwf	___xxtofl@sign
  1451  0F47                     i1l1944:
  1452  0F47  0878               	movf	___xxtofl@sign,w
  1453  0F48  1903               	btfsc	3,2
  1454  0F49  2F4B               	goto	u274_21
  1455  0F4A  2F4C               	goto	u274_20
  1456  0F4B                     u274_21:
  1457  0F4B  2F60               	goto	i1l1950
  1458  0F4C                     u274_20:
  1459  0F4C                     i1l1946:
  1460  0F4C  1FF3               	btfss	___xxtofl@val+3,7
  1461  0F4D  2F4F               	goto	u275_21
  1462  0F4E  2F50               	goto	u275_20
  1463  0F4F                     u275_21:
  1464  0F4F  2F60               	goto	i1l1950
  1465  0F50                     u275_20:
  1466  0F50                     i1l1948:
  1467  0F50  0970               	comf	___xxtofl@val,w
  1468  0F51  00FA               	movwf	___xxtofl@arg
  1469  0F52  0971               	comf	___xxtofl@val+1,w
  1470  0F53  00FB               	movwf	___xxtofl@arg+1
  1471  0F54  0972               	comf	___xxtofl@val+2,w
  1472  0F55  00FC               	movwf	___xxtofl@arg+2
  1473  0F56  0973               	comf	___xxtofl@val+3,w
  1474  0F57  00FD               	movwf	___xxtofl@arg+3
  1475  0F58  0AFA               	incf	___xxtofl@arg,f
  1476  0F59  1903               	skipnz
  1477  0F5A  0AFB               	incf	___xxtofl@arg+1,f
  1478  0F5B  1903               	skipnz
  1479  0F5C  0AFC               	incf	___xxtofl@arg+2,f
  1480  0F5D  1903               	skipnz
  1481  0F5E  0AFD               	incf	___xxtofl@arg+3,f
  1482  0F5F  2F68               	goto	i1l633
  1483  0F60                     i1l1950:
  1484  0F60  0873               	movf	___xxtofl@val+3,w
  1485  0F61  00FD               	movwf	___xxtofl@arg+3
  1486  0F62  0872               	movf	___xxtofl@val+2,w
  1487  0F63  00FC               	movwf	___xxtofl@arg+2
  1488  0F64  0871               	movf	___xxtofl@val+1,w
  1489  0F65  00FB               	movwf	___xxtofl@arg+1
  1490  0F66  0870               	movf	___xxtofl@val,w
  1491  0F67  00FA               	movwf	___xxtofl@arg
  1492  0F68                     i1l633:
  1493  0F68  0873               	movf	___xxtofl@val+3,w
  1494  0F69  0472               	iorwf	___xxtofl@val+2,w
  1495  0F6A  0471               	iorwf	___xxtofl@val+1,w
  1496  0F6B  0470               	iorwf	___xxtofl@val,w
  1497  0F6C  1D03               	skipz
  1498  0F6D  2F6F               	goto	u276_21
  1499  0F6E  2F70               	goto	u276_20
  1500  0F6F                     u276_21:
  1501  0F6F  2F79               	goto	i1l1956
  1502  0F70                     u276_20:
  1503  0F70                     i1l1952:
  1504  0F70  3000               	movlw	0
  1505  0F71  00F3               	movwf	?___xxtofl+3
  1506  0F72  3000               	movlw	0
  1507  0F73  00F2               	movwf	?___xxtofl+2
  1508  0F74  3000               	movlw	0
  1509  0F75  00F1               	movwf	?___xxtofl+1
  1510  0F76  3000               	movlw	0
  1511  0F77  00F0               	movwf	?___xxtofl
  1512  0F78  2FFF               	goto	i1l635
  1513  0F79                     i1l1956:
  1514  0F79  3096               	movlw	150
  1515  0F7A  00F4               	movwf	??___xxtofl
  1516  0F7B  0874               	movf	??___xxtofl,w
  1517  0F7C  00F9               	movwf	___xxtofl@exp
  1518  0F7D  2F8B               	goto	i1l1960
  1519  0F7E                     i1l1958:
  1520  0F7E  3001               	movlw	1
  1521  0F7F  00F4               	movwf	??___xxtofl
  1522  0F80  0874               	movf	??___xxtofl,w
  1523  0F81  07F9               	addwf	___xxtofl@exp,f
  1524  0F82  3001               	movlw	1
  1525  0F83                     u277_25:
  1526  0F83  1003               	clrc
  1527  0F84  0CFD               	rrf	___xxtofl@arg+3,f
  1528  0F85  0CFC               	rrf	___xxtofl@arg+2,f
  1529  0F86  0CFB               	rrf	___xxtofl@arg+1,f
  1530  0F87  0CFA               	rrf	___xxtofl@arg,f
  1531  0F88  3EFF               	addlw	-1
  1532  0F89  1D03               	skipz
  1533  0F8A  2F83               	goto	u277_25
  1534  0F8B                     i1l1960:
  1535  0F8B  30FE               	movlw	254
  1536  0F8C  057D               	andwf	___xxtofl@arg+3,w
  1537  0F8D  1D03               	btfss	3,2
  1538  0F8E  2F90               	goto	u278_21
  1539  0F8F  2F91               	goto	u278_20
  1540  0F90                     u278_21:
  1541  0F90  2F7E               	goto	i1l1958
  1542  0F91                     u278_20:
  1543  0F91  2FAD               	goto	i1l639
  1544  0F92                     i1l1962:
  1545  0F92  3001               	movlw	1
  1546  0F93  00F4               	movwf	??___xxtofl
  1547  0F94  0874               	movf	??___xxtofl,w
  1548  0F95  07F9               	addwf	___xxtofl@exp,f
  1549  0F96                     i1l1964:
  1550  0F96  3001               	movlw	1
  1551  0F97  07FA               	addwf	___xxtofl@arg,f
  1552  0F98  3000               	movlw	0
  1553  0F99  1803               	skipnc
  1554  0F9A  3001               	movlw	1
  1555  0F9B  07FB               	addwf	___xxtofl@arg+1,f
  1556  0F9C  3000               	movlw	0
  1557  0F9D  1803               	skipnc
  1558  0F9E  3001               	movlw	1
  1559  0F9F  07FC               	addwf	___xxtofl@arg+2,f
  1560  0FA0  3000               	movlw	0
  1561  0FA1  1803               	skipnc
  1562  0FA2  3001               	movlw	1
  1563  0FA3  07FD               	addwf	___xxtofl@arg+3,f
  1564  0FA4                     i1l1966:
  1565  0FA4  3001               	movlw	1
  1566  0FA5                     u279_25:
  1567  0FA5  1003               	clrc
  1568  0FA6  0CFD               	rrf	___xxtofl@arg+3,f
  1569  0FA7  0CFC               	rrf	___xxtofl@arg+2,f
  1570  0FA8  0CFB               	rrf	___xxtofl@arg+1,f
  1571  0FA9  0CFA               	rrf	___xxtofl@arg,f
  1572  0FAA  3EFF               	addlw	-1
  1573  0FAB  1D03               	skipz
  1574  0FAC  2FA5               	goto	u279_25
  1575  0FAD                     i1l639:
  1576  0FAD  30FF               	movlw	255
  1577  0FAE  057D               	andwf	___xxtofl@arg+3,w
  1578  0FAF  1D03               	btfss	3,2
  1579  0FB0  2FB2               	goto	u280_21
  1580  0FB1  2FB3               	goto	u280_20
  1581  0FB2                     u280_21:
  1582  0FB2  2F92               	goto	i1l1962
  1583  0FB3                     u280_20:
  1584  0FB3  2FBF               	goto	i1l1970
  1585  0FB4                     i1l1968:
  1586  0FB4  3001               	movlw	1
  1587  0FB5  02F9               	subwf	___xxtofl@exp,f
  1588  0FB6  3001               	movlw	1
  1589  0FB7  00F4               	movwf	??___xxtofl
  1590  0FB8                     u281_25:
  1591  0FB8  1003               	clrc
  1592  0FB9  0DFA               	rlf	___xxtofl@arg,f
  1593  0FBA  0DFB               	rlf	___xxtofl@arg+1,f
  1594  0FBB  0DFC               	rlf	___xxtofl@arg+2,f
  1595  0FBC  0DFD               	rlf	___xxtofl@arg+3,f
  1596  0FBD  0BF4               	decfsz	??___xxtofl,f
  1597  0FBE  2FB8               	goto	u281_25
  1598  0FBF                     i1l1970:
  1599  0FBF  1BFC               	btfsc	___xxtofl@arg+2,7
  1600  0FC0  2FC2               	goto	u282_21
  1601  0FC1  2FC3               	goto	u282_20
  1602  0FC2                     u282_21:
  1603  0FC2  2FC9               	goto	i1l646
  1604  0FC3                     u282_20:
  1605  0FC3                     i1l1972:
  1606  0FC3  3002               	movlw	2
  1607  0FC4  0279               	subwf	___xxtofl@exp,w
  1608  0FC5  1803               	skipnc
  1609  0FC6  2FC8               	goto	u283_21
  1610  0FC7  2FC9               	goto	u283_20
  1611  0FC8                     u283_21:
  1612  0FC8  2FB4               	goto	i1l1968
  1613  0FC9                     u283_20:
  1614  0FC9                     i1l646:
  1615  0FC9  1879               	btfsc	___xxtofl@exp,0
  1616  0FCA  2FCC               	goto	u284_21
  1617  0FCB  2FCD               	goto	u284_20
  1618  0FCC                     u284_21:
  1619  0FCC  2FD5               	goto	i1l647
  1620  0FCD                     u284_20:
  1621  0FCD                     i1l1974:
  1622  0FCD  30FF               	movlw	255
  1623  0FCE  05FA               	andwf	___xxtofl@arg,f
  1624  0FCF  30FF               	movlw	255
  1625  0FD0  05FB               	andwf	___xxtofl@arg+1,f
  1626  0FD1  307F               	movlw	127
  1627  0FD2  05FC               	andwf	___xxtofl@arg+2,f
  1628  0FD3  30FF               	movlw	255
  1629  0FD4  05FD               	andwf	___xxtofl@arg+3,f
  1630  0FD5                     i1l647:
  1631  0FD5  1003               	clrc
  1632  0FD6  0CF9               	rrf	___xxtofl@exp,f
  1633  0FD7                     i1l1976:
  1634  0FD7  0879               	movf	___xxtofl@exp,w
  1635  0FD8  00F4               	movwf	??___xxtofl
  1636  0FD9  01F5               	clrf	??___xxtofl+1
  1637  0FDA  01F6               	clrf	??___xxtofl+2
  1638  0FDB  01F7               	clrf	??___xxtofl+3
  1639  0FDC  3018               	movlw	24
  1640  0FDD                     u285_25:
  1641  0FDD  1003               	clrc
  1642  0FDE  0DF4               	rlf	??___xxtofl,f
  1643  0FDF  0DF5               	rlf	??___xxtofl+1,f
  1644  0FE0  0DF6               	rlf	??___xxtofl+2,f
  1645  0FE1  0DF7               	rlf	??___xxtofl+3,f
  1646  0FE2                     u285_20:
  1647  0FE2  3EFF               	addlw	-1
  1648  0FE3  1D03               	skipz
  1649  0FE4  2FDD               	goto	u285_25
  1650  0FE5  0874               	movf	??___xxtofl,w
  1651  0FE6  04FA               	iorwf	___xxtofl@arg,f
  1652  0FE7  0875               	movf	??___xxtofl+1,w
  1653  0FE8  04FB               	iorwf	___xxtofl@arg+1,f
  1654  0FE9  0876               	movf	??___xxtofl+2,w
  1655  0FEA  04FC               	iorwf	___xxtofl@arg+2,f
  1656  0FEB  0877               	movf	??___xxtofl+3,w
  1657  0FEC  04FD               	iorwf	___xxtofl@arg+3,f
  1658  0FED                     i1l1978:
  1659  0FED  0878               	movf	___xxtofl@sign,w
  1660  0FEE  1903               	btfsc	3,2
  1661  0FEF  2FF1               	goto	u286_21
  1662  0FF0  2FF2               	goto	u286_20
  1663  0FF1                     u286_21:
  1664  0FF1  2FF7               	goto	i1l1984
  1665  0FF2                     u286_20:
  1666  0FF2                     i1l1980:
  1667  0FF2  1FF3               	btfss	___xxtofl@val+3,7
  1668  0FF3  2FF5               	goto	u287_21
  1669  0FF4  2FF6               	goto	u287_20
  1670  0FF5                     u287_21:
  1671  0FF5  2FF7               	goto	i1l1984
  1672  0FF6                     u287_20:
  1673  0FF6                     i1l1982:
  1674  0FF6  17FD               	bsf	___xxtofl@arg+3,7
  1675  0FF7                     i1l1984:
  1676  0FF7  087D               	movf	___xxtofl@arg+3,w
  1677  0FF8  00F3               	movwf	?___xxtofl+3
  1678  0FF9  087C               	movf	___xxtofl@arg+2,w
  1679  0FFA  00F2               	movwf	?___xxtofl+2
  1680  0FFB  087B               	movf	___xxtofl@arg+1,w
  1681  0FFC  00F1               	movwf	?___xxtofl+1
  1682  0FFD  087A               	movf	___xxtofl@arg,w
  1683  0FFE  00F0               	movwf	?___xxtofl
  1684  0FFF                     i1l635:
  1685  0FFF  0008               	return
  1686  1000                     __end_of___xxtofl:
  1687                           
  1688                           	psect	text5
  1689  0DF8                     __ptext5:	
  1690 ;; *************** function ___fltol *****************
  1691 ;; Defined at:
  1692 ;;		line 43 in file "C:\Program Files\Microchip\xc8\v2.35\pic\sources\c90\common\fltol.c"
  1693 ;; Parameters:    Size  Location     Type
  1694 ;;  f1              4   72[BANK0 ] unsigned char 
  1695 ;; Auto vars:     Size  Location     Type
  1696 ;;  exp1            1   77[BANK0 ] unsigned char 
  1697 ;;  sign1           1   76[BANK0 ] unsigned char 
  1698 ;; Return value:  Size  Location     Type
  1699 ;;                  4   72[BANK0 ] long 
  1700 ;; Registers used:
  1701 ;;		wreg, status,2, status,0
  1702 ;; Tracked objects:
  1703 ;;		On entry : 0/0
  1704 ;;		On exit  : 0/0
  1705 ;;		Unchanged: 0/0
  1706 ;; Data sizes:     COMMON   BANK0   BANK1   BANK3   BANK2
  1707 ;;      Params:         0       4       0       0       0
  1708 ;;      Locals:         0       2       0       0       0
  1709 ;;      Temps:          0       0       5       0       0
  1710 ;;      Totals:         0       6       5       0       0
  1711 ;;Total ram usage:       11 bytes
  1712 ;; Hardware stack levels used: 1
  1713 ;; This function calls:
  1714 ;;		Nothing
  1715 ;; This function is called by:
  1716 ;;		_map
  1717 ;; This function uses a non-reentrant model
  1718 ;;
  1719                           
  1720  0DF8                     ___fltol:	
  1721                           ;psect for function ___fltol
  1722                           
  1723  0DF8                     i1l1432:	
  1724                           ;incstack = 0
  1725                           ; Regs used in ___fltol: [wreg+status,2+status,0]
  1726                           
  1727  0DF8  1003               	clrc
  1728  0DF9  1283               	bcf	3,5	;RP0=0, select bank0
  1729  0DFA  1303               	bcf	3,6	;RP1=0, select bank0
  1730  0DFB  0D6A               	rlf	___fltol@f1+2,w
  1731  0DFC  0D6B               	rlf	___fltol@f1+3,w
  1732  0DFD  1683               	bsf	3,5	;RP0=1, select bank1
  1733  0DFE  1303               	bcf	3,6	;RP1=0, select bank1
  1734  0DFF  00A0               	movwf	??___fltol^(0+128)
  1735  0E00  0820               	movf	??___fltol^(0+128),w
  1736  0E01  1283               	bcf	3,5	;RP0=0, select bank0
  1737  0E02  1303               	bcf	3,6	;RP1=0, select bank0
  1738  0E03  00ED               	movwf	___fltol@exp1
  1739  0E04  086D               	movf	___fltol@exp1,w
  1740  0E05  1D03               	btfss	3,2
  1741  0E06  2E08               	goto	u152_21
  1742  0E07  2E09               	goto	u152_20
  1743  0E08                     u152_21:
  1744  0E08  2E12               	goto	i1l1438
  1745  0E09                     u152_20:
  1746  0E09                     i1l1434:
  1747  0E09  3000               	movlw	0
  1748  0E0A  00EB               	movwf	?___fltol+3
  1749  0E0B  3000               	movlw	0
  1750  0E0C  00EA               	movwf	?___fltol+2
  1751  0E0D  3000               	movlw	0
  1752  0E0E  00E9               	movwf	?___fltol+1
  1753  0E0F  3000               	movlw	0
  1754  0E10  00E8               	movwf	?___fltol
  1755  0E11  2E93               	goto	i1l386
  1756  0E12                     i1l1438:
  1757  0E12  0868               	movf	___fltol@f1,w
  1758  0E13  1683               	bsf	3,5	;RP0=1, select bank1
  1759  0E14  1303               	bcf	3,6	;RP1=0, select bank1
  1760  0E15  00A0               	movwf	??___fltol^(0+128)
  1761  0E16  1283               	bcf	3,5	;RP0=0, select bank0
  1762  0E17  1303               	bcf	3,6	;RP1=0, select bank0
  1763  0E18  0869               	movf	___fltol@f1+1,w
  1764  0E19  1683               	bsf	3,5	;RP0=1, select bank1
  1765  0E1A  1303               	bcf	3,6	;RP1=0, select bank1
  1766  0E1B  00A1               	movwf	(??___fltol^(0+128)+1)
  1767  0E1C  1283               	bcf	3,5	;RP0=0, select bank0
  1768  0E1D  1303               	bcf	3,6	;RP1=0, select bank0
  1769  0E1E  086A               	movf	___fltol@f1+2,w
  1770  0E1F  1683               	bsf	3,5	;RP0=1, select bank1
  1771  0E20  1303               	bcf	3,6	;RP1=0, select bank1
  1772  0E21  00A2               	movwf	(??___fltol^(0+128)+2)
  1773  0E22  1283               	bcf	3,5	;RP0=0, select bank0
  1774  0E23  1303               	bcf	3,6	;RP1=0, select bank0
  1775  0E24  086B               	movf	___fltol@f1+3,w
  1776  0E25  1683               	bsf	3,5	;RP0=1, select bank1
  1777  0E26  1303               	bcf	3,6	;RP1=0, select bank1
  1778  0E27  00A3               	movwf	(??___fltol^(0+128)+3)
  1779  0E28  301F               	movlw	31
  1780  0E29                     u153_25:
  1781  0E29  1003               	clrc
  1782  0E2A  0CA3               	rrf	(??___fltol^(0+128)+3),f
  1783  0E2B  0CA2               	rrf	(??___fltol^(0+128)+2),f
  1784  0E2C  0CA1               	rrf	(??___fltol^(0+128)+1),f
  1785  0E2D  0CA0               	rrf	??___fltol^(0+128),f
  1786  0E2E                     u153_20:
  1787  0E2E  3EFF               	addlw	-1
  1788  0E2F  1D03               	skipz
  1789  0E30  2E29               	goto	u153_25
  1790  0E31  0820               	movf	??___fltol^(0+128),w
  1791  0E32  00A4               	movwf	(??___fltol+4)^(0+128)
  1792  0E33  0824               	movf	(??___fltol+4)^(0+128),w
  1793  0E34  1283               	bcf	3,5	;RP0=0, select bank0
  1794  0E35  1303               	bcf	3,6	;RP1=0, select bank0
  1795  0E36  00EC               	movwf	___fltol@sign1
  1796  0E37                     i1l1440:
  1797  0E37  17EA               	bsf	___fltol@f1+2,7
  1798  0E38                     i1l1442:
  1799  0E38  30FF               	movlw	255
  1800  0E39  05E8               	andwf	___fltol@f1,f
  1801  0E3A  30FF               	movlw	255
  1802  0E3B  05E9               	andwf	___fltol@f1+1,f
  1803  0E3C  30FF               	movlw	255
  1804  0E3D  05EA               	andwf	___fltol@f1+2,f
  1805  0E3E  3000               	movlw	0
  1806  0E3F  05EB               	andwf	___fltol@f1+3,f
  1807  0E40                     i1l1444:
  1808  0E40  3096               	movlw	150
  1809  0E41  02ED               	subwf	___fltol@exp1,f
  1810  0E42                     i1l1446:
  1811  0E42  1FED               	btfss	___fltol@exp1,7
  1812  0E43  2E45               	goto	u154_21
  1813  0E44  2E46               	goto	u154_20
  1814  0E45                     u154_21:
  1815  0E45  2E64               	goto	i1l1456
  1816  0E46                     u154_20:
  1817  0E46                     i1l1448:
  1818  0E46  086D               	movf	___fltol@exp1,w
  1819  0E47  3A80               	xorlw	128
  1820  0E48  3E97               	addlw	151
  1821  0E49  1803               	skipnc
  1822  0E4A  2E4C               	goto	u155_21
  1823  0E4B  2E4D               	goto	u155_20
  1824  0E4C                     u155_21:
  1825  0E4C  2E4E               	goto	i1l1454
  1826  0E4D                     u155_20:
  1827  0E4D  2E09               	goto	i1l1434
  1828  0E4E                     i1l1454:
  1829  0E4E  3001               	movlw	1
  1830  0E4F                     u156_25:
  1831  0E4F  1003               	clrc
  1832  0E50  0CEB               	rrf	___fltol@f1+3,f
  1833  0E51  0CEA               	rrf	___fltol@f1+2,f
  1834  0E52  0CE9               	rrf	___fltol@f1+1,f
  1835  0E53  0CE8               	rrf	___fltol@f1,f
  1836  0E54  3EFF               	addlw	-1
  1837  0E55  1D03               	skipz
  1838  0E56  2E4F               	goto	u156_25
  1839  0E57  3001               	movlw	1
  1840  0E58  1683               	bsf	3,5	;RP0=1, select bank1
  1841  0E59  1303               	bcf	3,6	;RP1=0, select bank1
  1842  0E5A  00A0               	movwf	??___fltol^(0+128)
  1843  0E5B  0820               	movf	??___fltol^(0+128),w
  1844  0E5C  1283               	bcf	3,5	;RP0=0, select bank0
  1845  0E5D  1303               	bcf	3,6	;RP1=0, select bank0
  1846  0E5E  07ED               	addwf	___fltol@exp1,f
  1847  0E5F  1D03               	btfss	3,2
  1848  0E60  2E62               	goto	u157_21
  1849  0E61  2E63               	goto	u157_20
  1850  0E62                     u157_21:
  1851  0E62  2E4E               	goto	i1l1454
  1852  0E63                     u157_20:
  1853  0E63  2E83               	goto	i1l1464
  1854  0E64                     i1l1456:
  1855  0E64  3020               	movlw	32
  1856  0E65  026D               	subwf	___fltol@exp1,w
  1857  0E66  1C03               	skipc
  1858  0E67  2E69               	goto	u158_21
  1859  0E68  2E6A               	goto	u158_20
  1860  0E69                     u158_21:
  1861  0E69  2E7E               	goto	i1l393
  1862  0E6A                     u158_20:
  1863  0E6A  2E09               	goto	i1l1434
  1864  0E6B                     i1l1462:
  1865  0E6B  3001               	movlw	1
  1866  0E6C  1683               	bsf	3,5	;RP0=1, select bank1
  1867  0E6D  1303               	bcf	3,6	;RP1=0, select bank1
  1868  0E6E  00A0               	movwf	??___fltol^(0+128)
  1869  0E6F                     u159_25:
  1870  0E6F  1003               	clrc
  1871  0E70  1283               	bcf	3,5	;RP0=0, select bank0
  1872  0E71  1303               	bcf	3,6	;RP1=0, select bank0
  1873  0E72  0DE8               	rlf	___fltol@f1,f
  1874  0E73  0DE9               	rlf	___fltol@f1+1,f
  1875  0E74  0DEA               	rlf	___fltol@f1+2,f
  1876  0E75  0DEB               	rlf	___fltol@f1+3,f
  1877  0E76  1683               	bsf	3,5	;RP0=1, select bank1
  1878  0E77  1303               	bcf	3,6	;RP1=0, select bank1
  1879  0E78  0BA0               	decfsz	??___fltol^(0+128),f
  1880  0E79  2E6F               	goto	u159_25
  1881  0E7A  3001               	movlw	1
  1882  0E7B  1283               	bcf	3,5	;RP0=0, select bank0
  1883  0E7C  1303               	bcf	3,6	;RP1=0, select bank0
  1884  0E7D  02ED               	subwf	___fltol@exp1,f
  1885  0E7E                     i1l393:
  1886  0E7E  086D               	movf	___fltol@exp1,w
  1887  0E7F  1D03               	btfss	3,2
  1888  0E80  2E82               	goto	u160_21
  1889  0E81  2E83               	goto	u160_20
  1890  0E82                     u160_21:
  1891  0E82  2E6B               	goto	i1l1462
  1892  0E83                     u160_20:
  1893  0E83                     i1l1464:
  1894  0E83  086C               	movf	___fltol@sign1,w
  1895  0E84  1903               	btfsc	3,2
  1896  0E85  2E87               	goto	u161_21
  1897  0E86  2E88               	goto	u161_20
  1898  0E87                     u161_21:
  1899  0E87  2E93               	goto	i1l396
  1900  0E88                     u161_20:
  1901  0E88                     i1l1466:
  1902  0E88  09E8               	comf	___fltol@f1,f
  1903  0E89  09E9               	comf	___fltol@f1+1,f
  1904  0E8A  09EA               	comf	___fltol@f1+2,f
  1905  0E8B  09EB               	comf	___fltol@f1+3,f
  1906  0E8C  0AE8               	incf	___fltol@f1,f
  1907  0E8D  1903               	skipnz
  1908  0E8E  0AE9               	incf	___fltol@f1+1,f
  1909  0E8F  1903               	skipnz
  1910  0E90  0AEA               	incf	___fltol@f1+2,f
  1911  0E91  1903               	skipnz
  1912  0E92  0AEB               	incf	___fltol@f1+3,f
  1913  0E93                     i1l396:
  1914  0E93                     i1l386:
  1915  0E93  0008               	return
  1916  0E94                     __end_of___fltol:
  1917                           
  1918                           	psect	text6
  1919  0027                     __ptext6:	
  1920 ;; *************** function ___flmul *****************
  1921 ;; Defined at:
  1922 ;;		line 8 in file "C:\Program Files\Microchip\xc8\v2.35\pic\sources\c90\common\sprcmul.c"
  1923 ;; Parameters:    Size  Location     Type
  1924 ;;  b               4   26[BANK0 ] long 
  1925 ;;  a               4   30[BANK0 ] long 
  1926 ;; Auto vars:     Size  Location     Type
  1927 ;;  prod            4   46[BANK0 ] struct .
  1928 ;;  grs             4   40[BANK0 ] unsigned long 
  1929 ;;  temp            2   50[BANK0 ] struct .
  1930 ;;  bexp            1   45[BANK0 ] unsigned char 
  1931 ;;  aexp            1   44[BANK0 ] unsigned char 
  1932 ;;  sign            1   39[BANK0 ] unsigned char 
  1933 ;; Return value:  Size  Location     Type
  1934 ;;                  4   26[BANK0 ] unsigned char 
  1935 ;; Registers used:
  1936 ;;		wreg, status,2, status,0, btemp+1, pclath, cstack
  1937 ;; Tracked objects:
  1938 ;;		On entry : 0/0
  1939 ;;		On exit  : 0/0
  1940 ;;		Unchanged: 0/0
  1941 ;; Data sizes:     COMMON   BANK0   BANK1   BANK3   BANK2
  1942 ;;      Params:         0       8       0       0       0
  1943 ;;      Locals:         0      13       0       0       0
  1944 ;;      Temps:          0       5       0       0       0
  1945 ;;      Totals:         0      26       0       0       0
  1946 ;;Total ram usage:       26 bytes
  1947 ;; Hardware stack levels used: 1
  1948 ;; Hardware stack levels required when called: 1
  1949 ;; This function calls:
  1950 ;;		__Umul8_16
  1951 ;; This function is called by:
  1952 ;;		_map
  1953 ;; This function uses a non-reentrant model
  1954 ;;
  1955                           
  1956  0027                     ___flmul:	
  1957                           ;psect for function ___flmul
  1958                           
  1959  0027                     i1l1804:	
  1960                           ;incstack = 0
  1961                           ; Regs used in ___flmul: [wreg+status,2+status,0+btemp+1+pclath+cstack]
  1962                           
  1963  0027  1283               	bcf	3,5	;RP0=0, select bank0
  1964  0028  1303               	bcf	3,6	;RP1=0, select bank0
  1965  0029  083D               	movf	___flmul@b+3,w
  1966  002A  3980               	andlw	128
  1967  002B  00C2               	movwf	??___flmul
  1968  002C  0842               	movf	??___flmul,w
  1969  002D  00C7               	movwf	___flmul@sign
  1970  002E                     i1l1806:
  1971  002E  083D               	movf	___flmul@b+3,w
  1972  002F  00C2               	movwf	??___flmul
  1973  0030  0742               	addwf	??___flmul,w
  1974  0031  00C3               	movwf	??___flmul+1
  1975  0032  0843               	movf	??___flmul+1,w
  1976  0033  00CD               	movwf	___flmul@bexp
  1977  0034                     i1l1808:
  1978  0034  1FBC               	btfss	___flmul@b+2,7
  1979  0035  2837               	goto	u237_21
  1980  0036  2838               	goto	u237_20
  1981  0037                     u237_21:
  1982  0037  2839               	goto	i1l1812
  1983  0038                     u237_20:
  1984  0038                     i1l1810:
  1985  0038  144D               	bsf	___flmul@bexp,0
  1986  0039                     i1l1812:
  1987  0039  084D               	movf	___flmul@bexp,w
  1988  003A  1903               	btfsc	3,2
  1989  003B  283D               	goto	u238_21
  1990  003C  283E               	goto	u238_20
  1991  003D                     u238_21:
  1992  003D  284D               	goto	i1l1820
  1993  003E                     u238_20:
  1994  003E                     i1l1814:
  1995  003E  0A4D               	incf	___flmul@bexp,w
  1996  003F  1D03               	btfss	3,2
  1997  0040  2842               	goto	u239_21
  1998  0041  2843               	goto	u239_20
  1999  0042                     u239_21:
  2000  0042  284B               	goto	i1l1818
  2001  0043                     u239_20:
  2002  0043                     i1l1816:
  2003  0043  3000               	movlw	0
  2004  0044  00BD               	movwf	___flmul@b+3
  2005  0045  3000               	movlw	0
  2006  0046  00BC               	movwf	___flmul@b+2
  2007  0047  3000               	movlw	0
  2008  0048  00BB               	movwf	___flmul@b+1
  2009  0049  3000               	movlw	0
  2010  004A  00BA               	movwf	___flmul@b
  2011  004B                     i1l1818:
  2012  004B  17BC               	bsf	___flmul@b+2,7
  2013  004C  2855               	goto	i1l1822
  2014  004D                     i1l1820:
  2015  004D  3000               	movlw	0
  2016  004E  00BD               	movwf	___flmul@b+3
  2017  004F  3000               	movlw	0
  2018  0050  00BC               	movwf	___flmul@b+2
  2019  0051  3000               	movlw	0
  2020  0052  00BB               	movwf	___flmul@b+1
  2021  0053  3000               	movlw	0
  2022  0054  00BA               	movwf	___flmul@b
  2023  0055                     i1l1822:
  2024  0055  0841               	movf	___flmul@a+3,w
  2025  0056  3980               	andlw	128
  2026  0057  00C2               	movwf	??___flmul
  2027  0058  0842               	movf	??___flmul,w
  2028  0059  06C7               	xorwf	___flmul@sign,f
  2029  005A                     i1l1824:
  2030  005A  0841               	movf	___flmul@a+3,w
  2031  005B  00C2               	movwf	??___flmul
  2032  005C  0742               	addwf	??___flmul,w
  2033  005D  00C3               	movwf	??___flmul+1
  2034  005E  0843               	movf	??___flmul+1,w
  2035  005F  00CC               	movwf	___flmul@aexp
  2036  0060                     i1l1826:
  2037  0060  1FC0               	btfss	___flmul@a+2,7
  2038  0061  2863               	goto	u240_21
  2039  0062  2864               	goto	u240_20
  2040  0063                     u240_21:
  2041  0063  2865               	goto	i1l1830
  2042  0064                     u240_20:
  2043  0064                     i1l1828:
  2044  0064  144C               	bsf	___flmul@aexp,0
  2045  0065                     i1l1830:
  2046  0065  084C               	movf	___flmul@aexp,w
  2047  0066  1903               	btfsc	3,2
  2048  0067  2869               	goto	u241_21
  2049  0068  286A               	goto	u241_20
  2050  0069                     u241_21:
  2051  0069  2879               	goto	i1l1838
  2052  006A                     u241_20:
  2053  006A                     i1l1832:
  2054  006A  0A4C               	incf	___flmul@aexp,w
  2055  006B  1D03               	btfss	3,2
  2056  006C  286E               	goto	u242_21
  2057  006D  286F               	goto	u242_20
  2058  006E                     u242_21:
  2059  006E  2877               	goto	i1l1836
  2060  006F                     u242_20:
  2061  006F                     i1l1834:
  2062  006F  3000               	movlw	0
  2063  0070  00C1               	movwf	___flmul@a+3
  2064  0071  3000               	movlw	0
  2065  0072  00C0               	movwf	___flmul@a+2
  2066  0073  3000               	movlw	0
  2067  0074  00BF               	movwf	___flmul@a+1
  2068  0075  3000               	movlw	0
  2069  0076  00BE               	movwf	___flmul@a
  2070  0077                     i1l1836:
  2071  0077  17C0               	bsf	___flmul@a+2,7
  2072  0078  2881               	goto	i1l1840
  2073  0079                     i1l1838:
  2074  0079  3000               	movlw	0
  2075  007A  00C1               	movwf	___flmul@a+3
  2076  007B  3000               	movlw	0
  2077  007C  00C0               	movwf	___flmul@a+2
  2078  007D  3000               	movlw	0
  2079  007E  00BF               	movwf	___flmul@a+1
  2080  007F  3000               	movlw	0
  2081  0080  00BE               	movwf	___flmul@a
  2082  0081                     i1l1840:
  2083  0081  084C               	movf	___flmul@aexp,w
  2084  0082  1903               	btfsc	3,2
  2085  0083  2885               	goto	u243_21
  2086  0084  2886               	goto	u243_20
  2087  0085                     u243_21:
  2088  0085  288B               	goto	i1l1844
  2089  0086                     u243_20:
  2090  0086                     i1l1842:
  2091  0086  084D               	movf	___flmul@bexp,w
  2092  0087  1D03               	btfss	3,2
  2093  0088  288A               	goto	u244_21
  2094  0089  288B               	goto	u244_20
  2095  008A                     u244_21:
  2096  008A  2894               	goto	i1l1848
  2097  008B                     u244_20:
  2098  008B                     i1l1844:
  2099  008B  3000               	movlw	0
  2100  008C  00BD               	movwf	?___flmul+3
  2101  008D  3000               	movlw	0
  2102  008E  00BC               	movwf	?___flmul+2
  2103  008F  3000               	movlw	0
  2104  0090  00BB               	movwf	?___flmul+1
  2105  0091  3000               	movlw	0
  2106  0092  00BA               	movwf	?___flmul
  2107  0093  2B87               	goto	i1l589
  2108  0094                     i1l1848:
  2109  0094  083A               	movf	___flmul@b,w
  2110  0095  00C2               	movwf	??___flmul
  2111  0096  0842               	movf	??___flmul,w
  2112  0097  00F0               	movwf	__Umul8_16@multiplicand
  2113  0098  0840               	movf	___flmul@a+2,w
  2114  0099  120A  158A  24B5  120A  118A  	fcall	__Umul8_16
  2115  009E  0871               	movf	?__Umul8_16+1,w
  2116  009F  1283               	bcf	3,5	;RP0=0, select bank0
  2117  00A0  1303               	bcf	3,6	;RP1=0, select bank0
  2118  00A1  00D3               	movwf	___flmul@temp+1
  2119  00A2  0870               	movf	?__Umul8_16,w
  2120  00A3  00D2               	movwf	___flmul@temp
  2121  00A4                     i1l1850:
  2122  00A4  0852               	movf	___flmul@temp,w
  2123  00A5  00C2               	movwf	??___flmul
  2124  00A6  01C3               	clrf	??___flmul+1
  2125  00A7  01C4               	clrf	??___flmul+2
  2126  00A8  01C5               	clrf	??___flmul+3
  2127  00A9  0845               	movf	??___flmul+3,w
  2128  00AA  00CB               	movwf	___flmul@grs+3
  2129  00AB  0844               	movf	??___flmul+2,w
  2130  00AC  00CA               	movwf	___flmul@grs+2
  2131  00AD  0843               	movf	??___flmul+1,w
  2132  00AE  00C9               	movwf	___flmul@grs+1
  2133  00AF  0842               	movf	??___flmul,w
  2134  00B0  00C8               	movwf	___flmul@grs
  2135  00B1                     i1l1852:
  2136  00B1  0853               	movf	___flmul@temp+1,w
  2137  00B2  00C2               	movwf	??___flmul
  2138  00B3  01C3               	clrf	??___flmul+1
  2139  00B4  01C4               	clrf	??___flmul+2
  2140  00B5  01C5               	clrf	??___flmul+3
  2141  00B6  0845               	movf	??___flmul+3,w
  2142  00B7  00D1               	movwf	___flmul@prod+3
  2143  00B8  0844               	movf	??___flmul+2,w
  2144  00B9  00D0               	movwf	___flmul@prod+2
  2145  00BA  0843               	movf	??___flmul+1,w
  2146  00BB  00CF               	movwf	___flmul@prod+1
  2147  00BC  0842               	movf	??___flmul,w
  2148  00BD  00CE               	movwf	___flmul@prod
  2149  00BE  083B               	movf	___flmul@b+1,w
  2150  00BF  00C2               	movwf	??___flmul
  2151  00C0  0842               	movf	??___flmul,w
  2152  00C1  00F0               	movwf	__Umul8_16@multiplicand
  2153  00C2  083F               	movf	___flmul@a+1,w
  2154  00C3  120A  158A  24B5  120A  118A  	fcall	__Umul8_16
  2155  00C8  0871               	movf	?__Umul8_16+1,w
  2156  00C9  1283               	bcf	3,5	;RP0=0, select bank0
  2157  00CA  1303               	bcf	3,6	;RP1=0, select bank0
  2158  00CB  00D3               	movwf	___flmul@temp+1
  2159  00CC  0870               	movf	?__Umul8_16,w
  2160  00CD  00D2               	movwf	___flmul@temp
  2161  00CE                     i1l1854:
  2162  00CE  0852               	movf	___flmul@temp,w
  2163  00CF  00C2               	movwf	??___flmul
  2164  00D0  01C3               	clrf	??___flmul+1
  2165  00D1  01C4               	clrf	??___flmul+2
  2166  00D2  01C5               	clrf	??___flmul+3
  2167  00D3  0842               	movf	??___flmul,w
  2168  00D4  07C8               	addwf	___flmul@grs,f
  2169  00D5  0843               	movf	??___flmul+1,w
  2170  00D6  1103               	clrz
  2171  00D7  1803               	skipnc
  2172  00D8  3E01               	addlw	1
  2173  00D9  1903               	skipnz
  2174  00DA  28DC               	goto	u245_21
  2175  00DB  07C9               	addwf	___flmul@grs+1,f
  2176  00DC                     u245_21:
  2177  00DC  0844               	movf	??___flmul+2,w
  2178  00DD  1103               	clrz
  2179  00DE  1803               	skipnc
  2180  00DF  3E01               	addlw	1
  2181  00E0  1903               	skipnz
  2182  00E1  28E3               	goto	u245_22
  2183  00E2  07CA               	addwf	___flmul@grs+2,f
  2184  00E3                     u245_22:
  2185  00E3  0845               	movf	??___flmul+3,w
  2186  00E4  1103               	clrz
  2187  00E5  1803               	skipnc
  2188  00E6  3E01               	addlw	1
  2189  00E7  1903               	skipnz
  2190  00E8  28EA               	goto	u245_23
  2191  00E9  07CB               	addwf	___flmul@grs+3,f
  2192  00EA                     u245_23:
  2193  00EA                     i1l1856:
  2194  00EA  0853               	movf	___flmul@temp+1,w
  2195  00EB  00C2               	movwf	??___flmul
  2196  00EC  01C3               	clrf	??___flmul+1
  2197  00ED  01C4               	clrf	??___flmul+2
  2198  00EE  01C5               	clrf	??___flmul+3
  2199  00EF  0842               	movf	??___flmul,w
  2200  00F0  07CE               	addwf	___flmul@prod,f
  2201  00F1  0843               	movf	??___flmul+1,w
  2202  00F2  1103               	clrz
  2203  00F3  1803               	skipnc
  2204  00F4  3E01               	addlw	1
  2205  00F5  1903               	skipnz
  2206  00F6  28F8               	goto	u246_21
  2207  00F7  07CF               	addwf	___flmul@prod+1,f
  2208  00F8                     u246_21:
  2209  00F8  0844               	movf	??___flmul+2,w
  2210  00F9  1103               	clrz
  2211  00FA  1803               	skipnc
  2212  00FB  3E01               	addlw	1
  2213  00FC  1903               	skipnz
  2214  00FD  28FF               	goto	u246_22
  2215  00FE  07D0               	addwf	___flmul@prod+2,f
  2216  00FF                     u246_22:
  2217  00FF  0845               	movf	??___flmul+3,w
  2218  0100  1103               	clrz
  2219  0101  1803               	skipnc
  2220  0102  3E01               	addlw	1
  2221  0103  1903               	skipnz
  2222  0104  2906               	goto	u246_23
  2223  0105  07D1               	addwf	___flmul@prod+3,f
  2224  0106                     u246_23:
  2225  0106  083C               	movf	___flmul@b+2,w
  2226  0107  00C2               	movwf	??___flmul
  2227  0108  0842               	movf	??___flmul,w
  2228  0109  00F0               	movwf	__Umul8_16@multiplicand
  2229  010A  083E               	movf	___flmul@a,w
  2230  010B  120A  158A  24B5  120A  118A  	fcall	__Umul8_16
  2231  0110  0871               	movf	?__Umul8_16+1,w
  2232  0111  1283               	bcf	3,5	;RP0=0, select bank0
  2233  0112  1303               	bcf	3,6	;RP1=0, select bank0
  2234  0113  00D3               	movwf	___flmul@temp+1
  2235  0114  0870               	movf	?__Umul8_16,w
  2236  0115  00D2               	movwf	___flmul@temp
  2237  0116                     i1l1858:
  2238  0116  0852               	movf	___flmul@temp,w
  2239  0117  00C2               	movwf	??___flmul
  2240  0118  01C3               	clrf	??___flmul+1
  2241  0119  01C4               	clrf	??___flmul+2
  2242  011A  01C5               	clrf	??___flmul+3
  2243  011B  0842               	movf	??___flmul,w
  2244  011C  07C8               	addwf	___flmul@grs,f
  2245  011D  0843               	movf	??___flmul+1,w
  2246  011E  1103               	clrz
  2247  011F  1803               	skipnc
  2248  0120  3E01               	addlw	1
  2249  0121  1903               	skipnz
  2250  0122  2924               	goto	u247_21
  2251  0123  07C9               	addwf	___flmul@grs+1,f
  2252  0124                     u247_21:
  2253  0124  0844               	movf	??___flmul+2,w
  2254  0125  1103               	clrz
  2255  0126  1803               	skipnc
  2256  0127  3E01               	addlw	1
  2257  0128  1903               	skipnz
  2258  0129  292B               	goto	u247_22
  2259  012A  07CA               	addwf	___flmul@grs+2,f
  2260  012B                     u247_22:
  2261  012B  0845               	movf	??___flmul+3,w
  2262  012C  1103               	clrz
  2263  012D  1803               	skipnc
  2264  012E  3E01               	addlw	1
  2265  012F  1903               	skipnz
  2266  0130  2932               	goto	u247_23
  2267  0131  07CB               	addwf	___flmul@grs+3,f
  2268  0132                     u247_23:
  2269  0132                     i1l1860:
  2270  0132  0853               	movf	___flmul@temp+1,w
  2271  0133  00C2               	movwf	??___flmul
  2272  0134  01C3               	clrf	??___flmul+1
  2273  0135  01C4               	clrf	??___flmul+2
  2274  0136  01C5               	clrf	??___flmul+3
  2275  0137  0842               	movf	??___flmul,w
  2276  0138  07CE               	addwf	___flmul@prod,f
  2277  0139  0843               	movf	??___flmul+1,w
  2278  013A  1103               	clrz
  2279  013B  1803               	skipnc
  2280  013C  3E01               	addlw	1
  2281  013D  1903               	skipnz
  2282  013E  2940               	goto	u248_21
  2283  013F  07CF               	addwf	___flmul@prod+1,f
  2284  0140                     u248_21:
  2285  0140  0844               	movf	??___flmul+2,w
  2286  0141  1103               	clrz
  2287  0142  1803               	skipnc
  2288  0143  3E01               	addlw	1
  2289  0144  1903               	skipnz
  2290  0145  2947               	goto	u248_22
  2291  0146  07D0               	addwf	___flmul@prod+2,f
  2292  0147                     u248_22:
  2293  0147  0845               	movf	??___flmul+3,w
  2294  0148  1103               	clrz
  2295  0149  1803               	skipnc
  2296  014A  3E01               	addlw	1
  2297  014B  1903               	skipnz
  2298  014C  294E               	goto	u248_23
  2299  014D  07D1               	addwf	___flmul@prod+3,f
  2300  014E                     u248_23:
  2301  014E                     i1l1862:
  2302  014E  3008               	movlw	8
  2303  014F  00C2               	movwf	??___flmul
  2304  0150                     u249_25:
  2305  0150  1003               	clrc
  2306  0151  0DC8               	rlf	___flmul@grs,f
  2307  0152  0DC9               	rlf	___flmul@grs+1,f
  2308  0153  0DCA               	rlf	___flmul@grs+2,f
  2309  0154  0DCB               	rlf	___flmul@grs+3,f
  2310  0155  0BC2               	decfsz	??___flmul,f
  2311  0156  2950               	goto	u249_25
  2312  0157                     i1l1864:
  2313  0157  083B               	movf	___flmul@b+1,w
  2314  0158  00C2               	movwf	??___flmul
  2315  0159  0842               	movf	??___flmul,w
  2316  015A  00F0               	movwf	__Umul8_16@multiplicand
  2317  015B  083E               	movf	___flmul@a,w
  2318  015C  120A  158A  24B5  120A  118A  	fcall	__Umul8_16
  2319  0161  0871               	movf	?__Umul8_16+1,w
  2320  0162  1283               	bcf	3,5	;RP0=0, select bank0
  2321  0163  1303               	bcf	3,6	;RP1=0, select bank0
  2322  0164  00D3               	movwf	___flmul@temp+1
  2323  0165  0870               	movf	?__Umul8_16,w
  2324  0166  00D2               	movwf	___flmul@temp
  2325  0167                     i1l1866:
  2326  0167  0852               	movf	___flmul@temp,w
  2327  0168  00C2               	movwf	??___flmul
  2328  0169  0853               	movf	___flmul@temp+1,w
  2329  016A  00C3               	movwf	??___flmul+1
  2330  016B  01C4               	clrf	??___flmul+2
  2331  016C  01C5               	clrf	??___flmul+3
  2332  016D  0842               	movf	??___flmul,w
  2333  016E  07C8               	addwf	___flmul@grs,f
  2334  016F  0843               	movf	??___flmul+1,w
  2335  0170  1103               	clrz
  2336  0171  1803               	skipnc
  2337  0172  3E01               	addlw	1
  2338  0173  1903               	skipnz
  2339  0174  2976               	goto	u250_21
  2340  0175  07C9               	addwf	___flmul@grs+1,f
  2341  0176                     u250_21:
  2342  0176  0844               	movf	??___flmul+2,w
  2343  0177  1103               	clrz
  2344  0178  1803               	skipnc
  2345  0179  3E01               	addlw	1
  2346  017A  1903               	skipnz
  2347  017B  297D               	goto	u250_22
  2348  017C  07CA               	addwf	___flmul@grs+2,f
  2349  017D                     u250_22:
  2350  017D  0845               	movf	??___flmul+3,w
  2351  017E  1103               	clrz
  2352  017F  1803               	skipnc
  2353  0180  3E01               	addlw	1
  2354  0181  1903               	skipnz
  2355  0182  2984               	goto	u250_23
  2356  0183  07CB               	addwf	___flmul@grs+3,f
  2357  0184                     u250_23:
  2358  0184                     i1l1868:
  2359  0184  083A               	movf	___flmul@b,w
  2360  0185  00C2               	movwf	??___flmul
  2361  0186  0842               	movf	??___flmul,w
  2362  0187  00F0               	movwf	__Umul8_16@multiplicand
  2363  0188  083F               	movf	___flmul@a+1,w
  2364  0189  120A  158A  24B5  120A  118A  	fcall	__Umul8_16
  2365  018E  0871               	movf	?__Umul8_16+1,w
  2366  018F  1283               	bcf	3,5	;RP0=0, select bank0
  2367  0190  1303               	bcf	3,6	;RP1=0, select bank0
  2368  0191  00D3               	movwf	___flmul@temp+1
  2369  0192  0870               	movf	?__Umul8_16,w
  2370  0193  00D2               	movwf	___flmul@temp
  2371  0194                     i1l1870:
  2372  0194  0852               	movf	___flmul@temp,w
  2373  0195  00C2               	movwf	??___flmul
  2374  0196  0853               	movf	___flmul@temp+1,w
  2375  0197  00C3               	movwf	??___flmul+1
  2376  0198  01C4               	clrf	??___flmul+2
  2377  0199  01C5               	clrf	??___flmul+3
  2378  019A  0842               	movf	??___flmul,w
  2379  019B  07C8               	addwf	___flmul@grs,f
  2380  019C  0843               	movf	??___flmul+1,w
  2381  019D  1103               	clrz
  2382  019E  1803               	skipnc
  2383  019F  3E01               	addlw	1
  2384  01A0  1903               	skipnz
  2385  01A1  29A3               	goto	u251_21
  2386  01A2  07C9               	addwf	___flmul@grs+1,f
  2387  01A3                     u251_21:
  2388  01A3  0844               	movf	??___flmul+2,w
  2389  01A4  1103               	clrz
  2390  01A5  1803               	skipnc
  2391  01A6  3E01               	addlw	1
  2392  01A7  1903               	skipnz
  2393  01A8  29AA               	goto	u251_22
  2394  01A9  07CA               	addwf	___flmul@grs+2,f
  2395  01AA                     u251_22:
  2396  01AA  0845               	movf	??___flmul+3,w
  2397  01AB  1103               	clrz
  2398  01AC  1803               	skipnc
  2399  01AD  3E01               	addlw	1
  2400  01AE  1903               	skipnz
  2401  01AF  29B1               	goto	u251_23
  2402  01B0  07CB               	addwf	___flmul@grs+3,f
  2403  01B1                     u251_23:
  2404  01B1                     i1l1872:
  2405  01B1  3008               	movlw	8
  2406  01B2  00C2               	movwf	??___flmul
  2407  01B3                     u252_25:
  2408  01B3  1003               	clrc
  2409  01B4  0DC8               	rlf	___flmul@grs,f
  2410  01B5  0DC9               	rlf	___flmul@grs+1,f
  2411  01B6  0DCA               	rlf	___flmul@grs+2,f
  2412  01B7  0DCB               	rlf	___flmul@grs+3,f
  2413  01B8  0BC2               	decfsz	??___flmul,f
  2414  01B9  29B3               	goto	u252_25
  2415  01BA  083A               	movf	___flmul@b,w
  2416  01BB  00C2               	movwf	??___flmul
  2417  01BC  0842               	movf	??___flmul,w
  2418  01BD  00F0               	movwf	__Umul8_16@multiplicand
  2419  01BE  083E               	movf	___flmul@a,w
  2420  01BF  120A  158A  24B5  120A  118A  	fcall	__Umul8_16
  2421  01C4  0871               	movf	?__Umul8_16+1,w
  2422  01C5  1283               	bcf	3,5	;RP0=0, select bank0
  2423  01C6  1303               	bcf	3,6	;RP1=0, select bank0
  2424  01C7  00D3               	movwf	___flmul@temp+1
  2425  01C8  0870               	movf	?__Umul8_16,w
  2426  01C9  00D2               	movwf	___flmul@temp
  2427  01CA                     i1l1874:
  2428  01CA  0852               	movf	___flmul@temp,w
  2429  01CB  00C2               	movwf	??___flmul
  2430  01CC  0853               	movf	___flmul@temp+1,w
  2431  01CD  00C3               	movwf	??___flmul+1
  2432  01CE  01C4               	clrf	??___flmul+2
  2433  01CF  01C5               	clrf	??___flmul+3
  2434  01D0  0842               	movf	??___flmul,w
  2435  01D1  07C8               	addwf	___flmul@grs,f
  2436  01D2  0843               	movf	??___flmul+1,w
  2437  01D3  1103               	clrz
  2438  01D4  1803               	skipnc
  2439  01D5  3E01               	addlw	1
  2440  01D6  1903               	skipnz
  2441  01D7  29D9               	goto	u253_21
  2442  01D8  07C9               	addwf	___flmul@grs+1,f
  2443  01D9                     u253_21:
  2444  01D9  0844               	movf	??___flmul+2,w
  2445  01DA  1103               	clrz
  2446  01DB  1803               	skipnc
  2447  01DC  3E01               	addlw	1
  2448  01DD  1903               	skipnz
  2449  01DE  29E0               	goto	u253_22
  2450  01DF  07CA               	addwf	___flmul@grs+2,f
  2451  01E0                     u253_22:
  2452  01E0  0845               	movf	??___flmul+3,w
  2453  01E1  1103               	clrz
  2454  01E2  1803               	skipnc
  2455  01E3  3E01               	addlw	1
  2456  01E4  1903               	skipnz
  2457  01E5  29E7               	goto	u253_23
  2458  01E6  07CB               	addwf	___flmul@grs+3,f
  2459  01E7                     u253_23:
  2460  01E7                     i1l1876:
  2461  01E7  083B               	movf	___flmul@b+1,w
  2462  01E8  00C2               	movwf	??___flmul
  2463  01E9  0842               	movf	??___flmul,w
  2464  01EA  00F0               	movwf	__Umul8_16@multiplicand
  2465  01EB  0840               	movf	___flmul@a+2,w
  2466  01EC  120A  158A  24B5  120A  118A  	fcall	__Umul8_16
  2467  01F1  0871               	movf	?__Umul8_16+1,w
  2468  01F2  1283               	bcf	3,5	;RP0=0, select bank0
  2469  01F3  1303               	bcf	3,6	;RP1=0, select bank0
  2470  01F4  00D3               	movwf	___flmul@temp+1
  2471  01F5  0870               	movf	?__Umul8_16,w
  2472  01F6  00D2               	movwf	___flmul@temp
  2473  01F7  0852               	movf	___flmul@temp,w
  2474  01F8  00C2               	movwf	??___flmul
  2475  01F9  0853               	movf	___flmul@temp+1,w
  2476  01FA  00C3               	movwf	??___flmul+1
  2477  01FB  01C4               	clrf	??___flmul+2
  2478  01FC  01C5               	clrf	??___flmul+3
  2479  01FD  0842               	movf	??___flmul,w
  2480  01FE  07CE               	addwf	___flmul@prod,f
  2481  01FF  0843               	movf	??___flmul+1,w
  2482  0200  1103               	clrz
  2483  0201  1803               	skipnc
  2484  0202  3E01               	addlw	1
  2485  0203  1903               	skipnz
  2486  0204  2A06               	goto	u254_21
  2487  0205  07CF               	addwf	___flmul@prod+1,f
  2488  0206                     u254_21:
  2489  0206  0844               	movf	??___flmul+2,w
  2490  0207  1103               	clrz
  2491  0208  1803               	skipnc
  2492  0209  3E01               	addlw	1
  2493  020A  1903               	skipnz
  2494  020B  2A0D               	goto	u254_22
  2495  020C  07D0               	addwf	___flmul@prod+2,f
  2496  020D                     u254_22:
  2497  020D  0845               	movf	??___flmul+3,w
  2498  020E  1103               	clrz
  2499  020F  1803               	skipnc
  2500  0210  3E01               	addlw	1
  2501  0211  1903               	skipnz
  2502  0212  2A14               	goto	u254_23
  2503  0213  07D1               	addwf	___flmul@prod+3,f
  2504  0214                     u254_23:
  2505  0214                     i1l1878:
  2506  0214  083C               	movf	___flmul@b+2,w
  2507  0215  00C2               	movwf	??___flmul
  2508  0216  0842               	movf	??___flmul,w
  2509  0217  00F0               	movwf	__Umul8_16@multiplicand
  2510  0218  083F               	movf	___flmul@a+1,w
  2511  0219  120A  158A  24B5  120A  118A  	fcall	__Umul8_16
  2512  021E  0871               	movf	?__Umul8_16+1,w
  2513  021F  1283               	bcf	3,5	;RP0=0, select bank0
  2514  0220  1303               	bcf	3,6	;RP1=0, select bank0
  2515  0221  00D3               	movwf	___flmul@temp+1
  2516  0222  0870               	movf	?__Umul8_16,w
  2517  0223  00D2               	movwf	___flmul@temp
  2518  0224                     i1l1880:
  2519  0224  0852               	movf	___flmul@temp,w
  2520  0225  00C2               	movwf	??___flmul
  2521  0226  0853               	movf	___flmul@temp+1,w
  2522  0227  00C3               	movwf	??___flmul+1
  2523  0228  01C4               	clrf	??___flmul+2
  2524  0229  01C5               	clrf	??___flmul+3
  2525  022A  0842               	movf	??___flmul,w
  2526  022B  07CE               	addwf	___flmul@prod,f
  2527  022C  0843               	movf	??___flmul+1,w
  2528  022D  1103               	clrz
  2529  022E  1803               	skipnc
  2530  022F  3E01               	addlw	1
  2531  0230  1903               	skipnz
  2532  0231  2A33               	goto	u255_21
  2533  0232  07CF               	addwf	___flmul@prod+1,f
  2534  0233                     u255_21:
  2535  0233  0844               	movf	??___flmul+2,w
  2536  0234  1103               	clrz
  2537  0235  1803               	skipnc
  2538  0236  3E01               	addlw	1
  2539  0237  1903               	skipnz
  2540  0238  2A3A               	goto	u255_22
  2541  0239  07D0               	addwf	___flmul@prod+2,f
  2542  023A                     u255_22:
  2543  023A  0845               	movf	??___flmul+3,w
  2544  023B  1103               	clrz
  2545  023C  1803               	skipnc
  2546  023D  3E01               	addlw	1
  2547  023E  1903               	skipnz
  2548  023F  2A41               	goto	u255_23
  2549  0240  07D1               	addwf	___flmul@prod+3,f
  2550  0241                     u255_23:
  2551  0241  083C               	movf	___flmul@b+2,w
  2552  0242  00C2               	movwf	??___flmul
  2553  0243  0842               	movf	??___flmul,w
  2554  0244  00F0               	movwf	__Umul8_16@multiplicand
  2555  0245  0840               	movf	___flmul@a+2,w
  2556  0246  120A  158A  24B5  120A  118A  	fcall	__Umul8_16
  2557  024B  0871               	movf	?__Umul8_16+1,w
  2558  024C  1283               	bcf	3,5	;RP0=0, select bank0
  2559  024D  1303               	bcf	3,6	;RP1=0, select bank0
  2560  024E  00D3               	movwf	___flmul@temp+1
  2561  024F  0870               	movf	?__Umul8_16,w
  2562  0250  00D2               	movwf	___flmul@temp
  2563  0251                     i1l1882:
  2564  0251  0852               	movf	___flmul@temp,w
  2565  0252  00C2               	movwf	??___flmul
  2566  0253  0853               	movf	___flmul@temp+1,w
  2567  0254  00C3               	movwf	??___flmul+1
  2568  0255  01C4               	clrf	??___flmul+2
  2569  0256  01C5               	clrf	??___flmul+3
  2570  0257  3008               	movlw	8
  2571  0258                     u256_25:
  2572  0258  1003               	clrc
  2573  0259  0DC2               	rlf	??___flmul,f
  2574  025A  0DC3               	rlf	??___flmul+1,f
  2575  025B  0DC4               	rlf	??___flmul+2,f
  2576  025C  0DC5               	rlf	??___flmul+3,f
  2577  025D                     u256_20:
  2578  025D  3EFF               	addlw	-1
  2579  025E  1D03               	skipz
  2580  025F  2A58               	goto	u256_25
  2581  0260  0842               	movf	??___flmul,w
  2582  0261  07CE               	addwf	___flmul@prod,f
  2583  0262  0843               	movf	??___flmul+1,w
  2584  0263  1103               	clrz
  2585  0264  1803               	skipnc
  2586  0265  3E01               	addlw	1
  2587  0266  1903               	skipnz
  2588  0267  2A69               	goto	u257_21
  2589  0268  07CF               	addwf	___flmul@prod+1,f
  2590  0269                     u257_21:
  2591  0269  0844               	movf	??___flmul+2,w
  2592  026A  1103               	clrz
  2593  026B  1803               	skipnc
  2594  026C  3E01               	addlw	1
  2595  026D  1903               	skipnz
  2596  026E  2A70               	goto	u257_22
  2597  026F  07D0               	addwf	___flmul@prod+2,f
  2598  0270                     u257_22:
  2599  0270  0845               	movf	??___flmul+3,w
  2600  0271  1103               	clrz
  2601  0272  1803               	skipnc
  2602  0273  3E01               	addlw	1
  2603  0274  1903               	skipnz
  2604  0275  2A77               	goto	u257_23
  2605  0276  07D1               	addwf	___flmul@prod+3,f
  2606  0277                     u257_23:
  2607  0277                     i1l1884:
  2608  0277  0848               	movf	___flmul@grs,w
  2609  0278  00C2               	movwf	??___flmul
  2610  0279  0849               	movf	___flmul@grs+1,w
  2611  027A  00C3               	movwf	??___flmul+1
  2612  027B  084A               	movf	___flmul@grs+2,w
  2613  027C  00C4               	movwf	??___flmul+2
  2614  027D  084B               	movf	___flmul@grs+3,w
  2615  027E  00C5               	movwf	??___flmul+3
  2616  027F  3018               	movlw	24
  2617  0280                     u258_25:
  2618  0280  1003               	clrc
  2619  0281  0CC5               	rrf	??___flmul+3,f
  2620  0282  0CC4               	rrf	??___flmul+2,f
  2621  0283  0CC3               	rrf	??___flmul+1,f
  2622  0284  0CC2               	rrf	??___flmul,f
  2623  0285                     u258_20:
  2624  0285  3EFF               	addlw	-1
  2625  0286  1D03               	skipz
  2626  0287  2A80               	goto	u258_25
  2627  0288  0842               	movf	??___flmul,w
  2628  0289  07CE               	addwf	___flmul@prod,f
  2629  028A  0843               	movf	??___flmul+1,w
  2630  028B  1103               	clrz
  2631  028C  1803               	skipnc
  2632  028D  3E01               	addlw	1
  2633  028E  1903               	skipnz
  2634  028F  2A91               	goto	u259_21
  2635  0290  07CF               	addwf	___flmul@prod+1,f
  2636  0291                     u259_21:
  2637  0291  0844               	movf	??___flmul+2,w
  2638  0292  1103               	clrz
  2639  0293  1803               	skipnc
  2640  0294  3E01               	addlw	1
  2641  0295  1903               	skipnz
  2642  0296  2A98               	goto	u259_22
  2643  0297  07D0               	addwf	___flmul@prod+2,f
  2644  0298                     u259_22:
  2645  0298  0845               	movf	??___flmul+3,w
  2646  0299  1103               	clrz
  2647  029A  1803               	skipnc
  2648  029B  3E01               	addlw	1
  2649  029C  1903               	skipnz
  2650  029D  2A9F               	goto	u259_23
  2651  029E  07D1               	addwf	___flmul@prod+3,f
  2652  029F                     u259_23:
  2653  029F                     i1l1886:
  2654  029F  3008               	movlw	8
  2655  02A0  00C2               	movwf	??___flmul
  2656  02A1                     u260_25:
  2657  02A1  1003               	clrc
  2658  02A2  0DC8               	rlf	___flmul@grs,f
  2659  02A3  0DC9               	rlf	___flmul@grs+1,f
  2660  02A4  0DCA               	rlf	___flmul@grs+2,f
  2661  02A5  0DCB               	rlf	___flmul@grs+3,f
  2662  02A6  0BC2               	decfsz	??___flmul,f
  2663  02A7  2AA1               	goto	u260_25
  2664  02A8                     i1l1888:
  2665  02A8  084D               	movf	___flmul@bexp,w
  2666  02A9  074C               	addwf	___flmul@aexp,w
  2667  02AA  00C2               	movwf	??___flmul
  2668  02AB  01C3               	clrf	??___flmul+1
  2669  02AC  0DC3               	rlf	??___flmul+1,f
  2670  02AD  0842               	movf	??___flmul,w
  2671  02AE  3E82               	addlw	130
  2672  02AF  00D2               	movwf	___flmul@temp
  2673  02B0  0843               	movf	??___flmul+1,w
  2674  02B1  1803               	skipnc
  2675  02B2  3E01               	addlw	1
  2676  02B3  3EFF               	addlw	255
  2677  02B4  00D3               	movwf	___flmul@temp+1
  2678  02B5  2AD3               	goto	i1l1900
  2679  02B6                     i1l1890:
  2680  02B6  3001               	movlw	1
  2681  02B7  00C2               	movwf	??___flmul
  2682  02B8                     u261_25:
  2683  02B8  1003               	clrc
  2684  02B9  0DCE               	rlf	___flmul@prod,f
  2685  02BA  0DCF               	rlf	___flmul@prod+1,f
  2686  02BB  0DD0               	rlf	___flmul@prod+2,f
  2687  02BC  0DD1               	rlf	___flmul@prod+3,f
  2688  02BD  0BC2               	decfsz	??___flmul,f
  2689  02BE  2AB8               	goto	u261_25
  2690  02BF                     i1l1892:
  2691  02BF  1FCB               	btfss	___flmul@grs+3,7
  2692  02C0  2AC2               	goto	u262_21
  2693  02C1  2AC3               	goto	u262_20
  2694  02C2                     u262_21:
  2695  02C2  2AC4               	goto	i1l1896
  2696  02C3                     u262_20:
  2697  02C3                     i1l1894:
  2698  02C3  144E               	bsf	___flmul@prod,0
  2699  02C4                     i1l1896:
  2700  02C4  3001               	movlw	1
  2701  02C5  00C2               	movwf	??___flmul
  2702  02C6                     u263_25:
  2703  02C6  1003               	clrc
  2704  02C7  0DC8               	rlf	___flmul@grs,f
  2705  02C8  0DC9               	rlf	___flmul@grs+1,f
  2706  02C9  0DCA               	rlf	___flmul@grs+2,f
  2707  02CA  0DCB               	rlf	___flmul@grs+3,f
  2708  02CB  0BC2               	decfsz	??___flmul,f
  2709  02CC  2AC6               	goto	u263_25
  2710  02CD                     i1l1898:
  2711  02CD  30FF               	movlw	255
  2712  02CE  07D2               	addwf	___flmul@temp,f
  2713  02CF  1803               	skipnc
  2714  02D0  0AD3               	incf	___flmul@temp+1,f
  2715  02D1  30FF               	movlw	255
  2716  02D2  07D3               	addwf	___flmul@temp+1,f
  2717  02D3                     i1l1900:
  2718  02D3  1FD0               	btfss	___flmul@prod+2,7
  2719  02D4  2AD6               	goto	u264_21
  2720  02D5  2AD7               	goto	u264_20
  2721  02D6                     u264_21:
  2722  02D6  2AB6               	goto	i1l1890
  2723  02D7                     u264_20:
  2724  02D7                     i1l1902:
  2725  02D7  01CC               	clrf	___flmul@aexp
  2726  02D8                     i1l1904:
  2727  02D8  1FCB               	btfss	___flmul@grs+3,7
  2728  02D9  2ADB               	goto	u265_21
  2729  02DA  2ADC               	goto	u265_20
  2730  02DB                     u265_21:
  2731  02DB  2AF8               	goto	i1l1912
  2732  02DC                     u265_20:
  2733  02DC                     i1l1906:
  2734  02DC  30FF               	movlw	255
  2735  02DD  0548               	andwf	___flmul@grs,w
  2736  02DE  00C2               	movwf	??___flmul
  2737  02DF  30FF               	movlw	255
  2738  02E0  0549               	andwf	___flmul@grs+1,w
  2739  02E1  00C3               	movwf	??___flmul+1
  2740  02E2  30FF               	movlw	255
  2741  02E3  054A               	andwf	___flmul@grs+2,w
  2742  02E4  00C4               	movwf	??___flmul+2
  2743  02E5  307F               	movlw	127
  2744  02E6  054B               	andwf	___flmul@grs+3,w
  2745  02E7  00C5               	movwf	??___flmul+3
  2746  02E8  0845               	movf	??___flmul+3,w
  2747  02E9  0444               	iorwf	??___flmul+2,w
  2748  02EA  0443               	iorwf	??___flmul+1,w
  2749  02EB  0442               	iorwf	??___flmul,w
  2750  02EC  1903               	skipnz
  2751  02ED  2AEF               	goto	u266_21
  2752  02EE  2AF0               	goto	u266_20
  2753  02EF                     u266_21:
  2754  02EF  2AF3               	goto	i1l595
  2755  02F0                     u266_20:
  2756  02F0                     i1l1908:
  2757  02F0  01CC               	clrf	___flmul@aexp
  2758  02F1  0ACC               	incf	___flmul@aexp,f
  2759  02F2  2AF8               	goto	i1l1912
  2760  02F3                     i1l595:
  2761  02F3  1C4E               	btfss	___flmul@prod,0
  2762  02F4  2AF6               	goto	u267_21
  2763  02F5  2AF7               	goto	u267_20
  2764  02F6                     u267_21:
  2765  02F6  2AF8               	goto	i1l1912
  2766  02F7                     u267_20:
  2767  02F7  2AF0               	goto	i1l1908
  2768  02F8                     i1l1912:
  2769  02F8  084C               	movf	___flmul@aexp,w
  2770  02F9  1903               	btfsc	3,2
  2771  02FA  2AFC               	goto	u268_21
  2772  02FB  2AFD               	goto	u268_20
  2773  02FC                     u268_21:
  2774  02FC  2B2E               	goto	i1l1922
  2775  02FD                     u268_20:
  2776  02FD                     i1l1914:
  2777  02FD  3001               	movlw	1
  2778  02FE  07CE               	addwf	___flmul@prod,f
  2779  02FF  3000               	movlw	0
  2780  0300  1803               	skipnc
  2781  0301  3001               	movlw	1
  2782  0302  07CF               	addwf	___flmul@prod+1,f
  2783  0303  3000               	movlw	0
  2784  0304  1803               	skipnc
  2785  0305  3001               	movlw	1
  2786  0306  07D0               	addwf	___flmul@prod+2,f
  2787  0307  3000               	movlw	0
  2788  0308  1803               	skipnc
  2789  0309  3001               	movlw	1
  2790  030A  07D1               	addwf	___flmul@prod+3,f
  2791  030B                     i1l1916:
  2792  030B  1C51               	btfss	___flmul@prod+3,0
  2793  030C  2B0E               	goto	u269_21
  2794  030D  2B0F               	goto	u269_20
  2795  030E                     u269_21:
  2796  030E  2B2E               	goto	i1l1922
  2797  030F                     u269_20:
  2798  030F                     i1l1918:
  2799  030F  084E               	movf	___flmul@prod,w
  2800  0310  00C2               	movwf	??___flmul
  2801  0311  084F               	movf	___flmul@prod+1,w
  2802  0312  00C3               	movwf	??___flmul+1
  2803  0313  0850               	movf	___flmul@prod+2,w
  2804  0314  00C4               	movwf	??___flmul+2
  2805  0315  0851               	movf	___flmul@prod+3,w
  2806  0316  00C5               	movwf	??___flmul+3
  2807  0317  3001               	movlw	1
  2808  0318  00C6               	movwf	??___flmul+4
  2809  0319                     u270_25:
  2810  0319  0D45               	rlf	??___flmul+3,w
  2811  031A  0CC5               	rrf	??___flmul+3,f
  2812  031B  0CC4               	rrf	??___flmul+2,f
  2813  031C  0CC3               	rrf	??___flmul+1,f
  2814  031D  0CC2               	rrf	??___flmul,f
  2815  031E                     u270_20:
  2816  031E  0BC6               	decfsz	??___flmul+4,f
  2817  031F  2B19               	goto	u270_25
  2818  0320  0845               	movf	??___flmul+3,w
  2819  0321  00D1               	movwf	___flmul@prod+3
  2820  0322  0844               	movf	??___flmul+2,w
  2821  0323  00D0               	movwf	___flmul@prod+2
  2822  0324  0843               	movf	??___flmul+1,w
  2823  0325  00CF               	movwf	___flmul@prod+1
  2824  0326  0842               	movf	??___flmul,w
  2825  0327  00CE               	movwf	___flmul@prod
  2826  0328                     i1l1920:
  2827  0328  3001               	movlw	1
  2828  0329  07D2               	addwf	___flmul@temp,f
  2829  032A  1803               	skipnc
  2830  032B  0AD3               	incf	___flmul@temp+1,f
  2831  032C  3000               	movlw	0
  2832  032D  07D3               	addwf	___flmul@temp+1,f
  2833  032E                     i1l1922:
  2834  032E  0853               	movf	___flmul@temp+1,w
  2835  032F  3A80               	xorlw	128
  2836  0330  00FF               	movwf	btemp+1
  2837  0331  3080               	movlw	128
  2838  0332  027F               	subwf	btemp+1,w
  2839  0333  1D03               	skipz
  2840  0334  2B37               	goto	u271_25
  2841  0335  30FF               	movlw	255
  2842  0336  0252               	subwf	___flmul@temp,w
  2843  0337                     u271_25:
  2844  0337  1C03               	skipc
  2845  0338  2B3A               	goto	u271_21
  2846  0339  2B3B               	goto	u271_20
  2847  033A                     u271_21:
  2848  033A  2B46               	goto	i1l1926
  2849  033B                     u271_20:
  2850  033B                     i1l1924:
  2851  033B  307F               	movlw	127
  2852  033C  1283               	bcf	3,5	;RP0=0, select bank0
  2853  033D  1303               	bcf	3,6	;RP1=0, select bank0
  2854  033E  00D1               	movwf	___flmul@prod+3
  2855  033F  3080               	movlw	128
  2856  0340  00D0               	movwf	___flmul@prod+2
  2857  0341  3000               	movlw	0
  2858  0342  00CF               	movwf	___flmul@prod+1
  2859  0343  3000               	movlw	0
  2860  0344  00CE               	movwf	___flmul@prod
  2861  0345  2B7B               	goto	i1l601
  2862  0346                     i1l1926:
  2863  0346  1283               	bcf	3,5	;RP0=0, select bank0
  2864  0347  1303               	bcf	3,6	;RP1=0, select bank0
  2865  0348  0853               	movf	___flmul@temp+1,w
  2866  0349  3A80               	xorlw	128
  2867  034A  00FF               	movwf	btemp+1
  2868  034B  3080               	movlw	128
  2869  034C  027F               	subwf	btemp+1,w
  2870  034D  1D03               	skipz
  2871  034E  2B51               	goto	u272_25
  2872  034F  3001               	movlw	1
  2873  0350  0252               	subwf	___flmul@temp,w
  2874  0351                     u272_25:
  2875  0351  1803               	skipnc
  2876  0352  2B54               	goto	u272_21
  2877  0353  2B55               	goto	u272_20
  2878  0354                     u272_21:
  2879  0354  2B61               	goto	i1l1932
  2880  0355                     u272_20:
  2881  0355                     i1l1928:
  2882  0355  3000               	movlw	0
  2883  0356  1283               	bcf	3,5	;RP0=0, select bank0
  2884  0357  1303               	bcf	3,6	;RP1=0, select bank0
  2885  0358  00D1               	movwf	___flmul@prod+3
  2886  0359  3000               	movlw	0
  2887  035A  00D0               	movwf	___flmul@prod+2
  2888  035B  3000               	movlw	0
  2889  035C  00CF               	movwf	___flmul@prod+1
  2890  035D  3000               	movlw	0
  2891  035E  00CE               	movwf	___flmul@prod
  2892  035F                     i1l1930:
  2893  035F  01C7               	clrf	___flmul@sign
  2894  0360  2B7B               	goto	i1l601
  2895  0361                     i1l1932:
  2896  0361  1283               	bcf	3,5	;RP0=0, select bank0
  2897  0362  1303               	bcf	3,6	;RP1=0, select bank0
  2898  0363  0852               	movf	___flmul@temp,w
  2899  0364  00C2               	movwf	??___flmul
  2900  0365  0842               	movf	??___flmul,w
  2901  0366  00CD               	movwf	___flmul@bexp
  2902  0367  30FF               	movlw	255
  2903  0368  05CE               	andwf	___flmul@prod,f
  2904  0369  30FF               	movlw	255
  2905  036A  05CF               	andwf	___flmul@prod+1,f
  2906  036B  307F               	movlw	127
  2907  036C  05D0               	andwf	___flmul@prod+2,f
  2908  036D  3000               	movlw	0
  2909  036E  05D1               	andwf	___flmul@prod+3,f
  2910  036F                     i1l1934:
  2911  036F  1C4D               	btfss	___flmul@bexp,0
  2912  0370  2B72               	goto	u273_21
  2913  0371  2B73               	goto	u273_20
  2914  0372                     u273_21:
  2915  0372  2B74               	goto	i1l1938
  2916  0373                     u273_20:
  2917  0373                     i1l1936:
  2918  0373  17D0               	bsf	___flmul@prod+2,7
  2919  0374                     i1l1938:
  2920  0374  084D               	movf	___flmul@bexp,w
  2921  0375  00C2               	movwf	??___flmul
  2922  0376  1003               	clrc
  2923  0377  0C42               	rrf	??___flmul,w
  2924  0378  00C3               	movwf	??___flmul+1
  2925  0379  0843               	movf	??___flmul+1,w
  2926  037A  00D1               	movwf	___flmul@prod+3
  2927  037B                     i1l601:
  2928  037B  0847               	movf	___flmul@sign,w
  2929  037C  00C2               	movwf	??___flmul
  2930  037D  0842               	movf	??___flmul,w
  2931  037E  04D1               	iorwf	___flmul@prod+3,f
  2932  037F                     i1l1940:
  2933  037F  0851               	movf	___flmul@prod+3,w
  2934  0380  00BD               	movwf	?___flmul+3
  2935  0381  0850               	movf	___flmul@prod+2,w
  2936  0382  00BC               	movwf	?___flmul+2
  2937  0383  084F               	movf	___flmul@prod+1,w
  2938  0384  00BB               	movwf	?___flmul+1
  2939  0385  084E               	movf	___flmul@prod,w
  2940  0386  00BA               	movwf	?___flmul
  2941  0387                     i1l589:
  2942  0387  0008               	return
  2943  0388                     __end_of___flmul:
  2944                           
  2945                           	psect	text7
  2946  0CB5                     __ptext7:	
  2947 ;; *************** function __Umul8_16 *****************
  2948 ;; Defined at:
  2949 ;;		line 4 in file "C:\Program Files\Microchip\xc8\v2.35\pic\sources\c90\common\Umul8_16.c"
  2950 ;; Parameters:    Size  Location     Type
  2951 ;;  multiplier      1    wreg     unsigned char 
  2952 ;;  multiplicand    1    0[COMMON] unsigned char 
  2953 ;; Auto vars:     Size  Location     Type
  2954 ;;  multiplier      1    8[COMMON] unsigned char 
  2955 ;;  word_mpld       2    6[COMMON] unsigned int 
  2956 ;;  product         2    4[COMMON] unsigned int 
  2957 ;; Return value:  Size  Location     Type
  2958 ;;                  2    0[COMMON] unsigned int 
  2959 ;; Registers used:
  2960 ;;		wreg, status,2, status,0
  2961 ;; Tracked objects:
  2962 ;;		On entry : 0/0
  2963 ;;		On exit  : 0/0
  2964 ;;		Unchanged: 0/0
  2965 ;; Data sizes:     COMMON   BANK0   BANK1   BANK3   BANK2
  2966 ;;      Params:         2       0       0       0       0
  2967 ;;      Locals:         5       0       0       0       0
  2968 ;;      Temps:          2       0       0       0       0
  2969 ;;      Totals:         9       0       0       0       0
  2970 ;;Total ram usage:        9 bytes
  2971 ;; Hardware stack levels used: 1
  2972 ;; This function calls:
  2973 ;;		Nothing
  2974 ;; This function is called by:
  2975 ;;		___flmul
  2976 ;; This function uses a non-reentrant model
  2977 ;;
  2978                           
  2979  0CB5                     __Umul8_16:	
  2980                           ;psect for function __Umul8_16
  2981                           
  2982                           
  2983                           ;incstack = 0
  2984                           ; Regs used in __Umul8_16: [wreg+status,2+status,0]
  2985                           ;__Umul8_16@multiplier stored from wreg
  2986  0CB5  00F8               	movwf	__Umul8_16@multiplier
  2987  0CB6                     i1l1418:
  2988  0CB6  01F4               	clrf	__Umul8_16@product
  2989  0CB7  01F5               	clrf	__Umul8_16@product+1
  2990  0CB8                     i1l1420:
  2991  0CB8  0870               	movf	__Umul8_16@multiplicand,w
  2992  0CB9  00F2               	movwf	??__Umul8_16
  2993  0CBA  01F3               	clrf	??__Umul8_16+1
  2994  0CBB  0872               	movf	??__Umul8_16,w
  2995  0CBC  00F6               	movwf	__Umul8_16@word_mpld
  2996  0CBD  0873               	movf	??__Umul8_16+1,w
  2997  0CBE  00F7               	movwf	__Umul8_16@word_mpld+1
  2998  0CBF                     i1l1422:
  2999  0CBF  1C78               	btfss	__Umul8_16@multiplier,0
  3000  0CC0  2CC2               	goto	u149_21
  3001  0CC1  2CC3               	goto	u149_20
  3002  0CC2                     u149_21:
  3003  0CC2  2CC9               	goto	i1l608
  3004  0CC3                     u149_20:
  3005  0CC3                     i1l1424:
  3006  0CC3  0876               	movf	__Umul8_16@word_mpld,w
  3007  0CC4  07F4               	addwf	__Umul8_16@product,f
  3008  0CC5  1803               	skipnc
  3009  0CC6  0AF5               	incf	__Umul8_16@product+1,f
  3010  0CC7  0877               	movf	__Umul8_16@word_mpld+1,w
  3011  0CC8  07F5               	addwf	__Umul8_16@product+1,f
  3012  0CC9                     i1l608:
  3013  0CC9  3001               	movlw	1
  3014  0CCA                     u150_25:
  3015  0CCA  1003               	clrc
  3016  0CCB  0DF6               	rlf	__Umul8_16@word_mpld,f
  3017  0CCC  0DF7               	rlf	__Umul8_16@word_mpld+1,f
  3018  0CCD  3EFF               	addlw	-1
  3019  0CCE  1D03               	skipz
  3020  0CCF  2CCA               	goto	u150_25
  3021  0CD0  1003               	clrc
  3022  0CD1  0CF8               	rrf	__Umul8_16@multiplier,f
  3023  0CD2                     i1l1426:
  3024  0CD2  0878               	movf	__Umul8_16@multiplier,w
  3025  0CD3  1D03               	btfss	3,2
  3026  0CD4  2CD6               	goto	u151_21
  3027  0CD5  2CD7               	goto	u151_20
  3028  0CD6                     u151_21:
  3029  0CD6  2CBF               	goto	i1l1422
  3030  0CD7                     u151_20:
  3031  0CD7                     i1l1428:
  3032  0CD7  0875               	movf	__Umul8_16@product+1,w
  3033  0CD8  00F1               	movwf	?__Umul8_16+1
  3034  0CD9  0874               	movf	__Umul8_16@product,w
  3035  0CDA  00F0               	movwf	?__Umul8_16
  3036  0CDB                     i1l610:
  3037  0CDB  0008               	return
  3038  0CDC                     __end_of__Umul8_16:
  3039                           
  3040                           	psect	text8
  3041  0610                     __ptext8:	
  3042 ;; *************** function ___fldiv *****************
  3043 ;; Defined at:
  3044 ;;		line 8 in file "C:\Program Files\Microchip\xc8\v2.35\pic\sources\c90\common\sprcdiv.c"
  3045 ;; Parameters:    Size  Location     Type
  3046 ;;  a               4    0[BANK0 ] unsigned int 
  3047 ;;  b               4    4[BANK0 ] unsigned int 
  3048 ;; Auto vars:     Size  Location     Type
  3049 ;;  grs             4   20[BANK0 ] unsigned long 
  3050 ;;  rem             4   13[BANK0 ] unsigned long 
  3051 ;;  new_exp         2   18[BANK0 ] int 
  3052 ;;  aexp            1   25[BANK0 ] unsigned char 
  3053 ;;  bexp            1   24[BANK0 ] unsigned char 
  3054 ;;  sign            1   17[BANK0 ] unsigned char 
  3055 ;; Return value:  Size  Location     Type
  3056 ;;                  4    0[BANK0 ] unsigned char 
  3057 ;; Registers used:
  3058 ;;		wreg, status,2, status,0, btemp+1
  3059 ;; Tracked objects:
  3060 ;;		On entry : 0/0
  3061 ;;		On exit  : 0/0
  3062 ;;		Unchanged: 0/0
  3063 ;; Data sizes:     COMMON   BANK0   BANK1   BANK3   BANK2
  3064 ;;      Params:         0       8       0       0       0
  3065 ;;      Locals:         0      13       0       0       0
  3066 ;;      Temps:          0       5       0       0       0
  3067 ;;      Totals:         0      26       0       0       0
  3068 ;;Total ram usage:       26 bytes
  3069 ;; Hardware stack levels used: 1
  3070 ;; This function calls:
  3071 ;;		Nothing
  3072 ;; This function is called by:
  3073 ;;		_map
  3074 ;; This function uses a non-reentrant model
  3075 ;;
  3076                           
  3077  0610                     ___fldiv:	
  3078                           ;psect for function ___fldiv
  3079                           
  3080  0610                     i1l1662:	
  3081                           ;incstack = 0
  3082                           ; Regs used in ___fldiv: [wreg+status,2+status,0+btemp+1]
  3083                           
  3084  0610  1283               	bcf	3,5	;RP0=0, select bank0
  3085  0611  1303               	bcf	3,6	;RP1=0, select bank0
  3086  0612  0827               	movf	___fldiv@b+3,w
  3087  0613  3980               	andlw	128
  3088  0614  00A8               	movwf	??___fldiv
  3089  0615  0828               	movf	??___fldiv,w
  3090  0616  00B1               	movwf	___fldiv@sign
  3091  0617                     i1l1664:
  3092  0617  0827               	movf	___fldiv@b+3,w
  3093  0618  00A8               	movwf	??___fldiv
  3094  0619  0728               	addwf	??___fldiv,w
  3095  061A  00A9               	movwf	??___fldiv+1
  3096  061B  0829               	movf	??___fldiv+1,w
  3097  061C  00B8               	movwf	___fldiv@bexp
  3098  061D                     i1l1666:
  3099  061D  1FA6               	btfss	___fldiv@b+2,7
  3100  061E  2E20               	goto	u208_21
  3101  061F  2E21               	goto	u208_20
  3102  0620                     u208_21:
  3103  0620  2E22               	goto	i1l1670
  3104  0621                     u208_20:
  3105  0621                     i1l1668:
  3106  0621  1438               	bsf	___fldiv@bexp,0
  3107  0622                     i1l1670:
  3108  0622  0838               	movf	___fldiv@bexp,w
  3109  0623  1903               	btfsc	3,2
  3110  0624  2E26               	goto	u209_21
  3111  0625  2E27               	goto	u209_20
  3112  0626                     u209_21:
  3113  0626  2E37               	goto	i1l1680
  3114  0627                     u209_20:
  3115  0627                     i1l1672:
  3116  0627  0A38               	incf	___fldiv@bexp,w
  3117  0628  1D03               	btfss	3,2
  3118  0629  2E2B               	goto	u210_21
  3119  062A  2E2C               	goto	u210_20
  3120  062B                     u210_21:
  3121  062B  2E34               	goto	i1l1676
  3122  062C                     u210_20:
  3123  062C                     i1l1674:
  3124  062C  3000               	movlw	0
  3125  062D  00A7               	movwf	___fldiv@b+3
  3126  062E  3000               	movlw	0
  3127  062F  00A6               	movwf	___fldiv@b+2
  3128  0630  3000               	movlw	0
  3129  0631  00A5               	movwf	___fldiv@b+1
  3130  0632  3000               	movlw	0
  3131  0633  00A4               	movwf	___fldiv@b
  3132  0634                     i1l1676:
  3133  0634  17A6               	bsf	___fldiv@b+2,7
  3134  0635                     i1l1678:
  3135  0635  01A7               	clrf	___fldiv@b+3
  3136  0636  2E3F               	goto	i1l1682
  3137  0637                     i1l1680:
  3138  0637  3000               	movlw	0
  3139  0638  00A7               	movwf	___fldiv@b+3
  3140  0639  3000               	movlw	0
  3141  063A  00A6               	movwf	___fldiv@b+2
  3142  063B  3000               	movlw	0
  3143  063C  00A5               	movwf	___fldiv@b+1
  3144  063D  3000               	movlw	0
  3145  063E  00A4               	movwf	___fldiv@b
  3146  063F                     i1l1682:
  3147  063F  0823               	movf	___fldiv@a+3,w
  3148  0640  3980               	andlw	128
  3149  0641  00A8               	movwf	??___fldiv
  3150  0642  0828               	movf	??___fldiv,w
  3151  0643  06B1               	xorwf	___fldiv@sign,f
  3152  0644                     i1l1684:
  3153  0644  0823               	movf	___fldiv@a+3,w
  3154  0645  00A8               	movwf	??___fldiv
  3155  0646  0728               	addwf	??___fldiv,w
  3156  0647  00A9               	movwf	??___fldiv+1
  3157  0648  0829               	movf	??___fldiv+1,w
  3158  0649  00B9               	movwf	___fldiv@aexp
  3159  064A                     i1l1686:
  3160  064A  1FA2               	btfss	___fldiv@a+2,7
  3161  064B  2E4D               	goto	u211_21
  3162  064C  2E4E               	goto	u211_20
  3163  064D                     u211_21:
  3164  064D  2E4F               	goto	i1l1690
  3165  064E                     u211_20:
  3166  064E                     i1l1688:
  3167  064E  1439               	bsf	___fldiv@aexp,0
  3168  064F                     i1l1690:
  3169  064F  0839               	movf	___fldiv@aexp,w
  3170  0650  1903               	btfsc	3,2
  3171  0651  2E53               	goto	u212_21
  3172  0652  2E54               	goto	u212_20
  3173  0653                     u212_21:
  3174  0653  2E64               	goto	i1l1700
  3175  0654                     u212_20:
  3176  0654                     i1l1692:
  3177  0654  0A39               	incf	___fldiv@aexp,w
  3178  0655  1D03               	btfss	3,2
  3179  0656  2E58               	goto	u213_21
  3180  0657  2E59               	goto	u213_20
  3181  0658                     u213_21:
  3182  0658  2E61               	goto	i1l1696
  3183  0659                     u213_20:
  3184  0659                     i1l1694:
  3185  0659  3000               	movlw	0
  3186  065A  00A3               	movwf	___fldiv@a+3
  3187  065B  3000               	movlw	0
  3188  065C  00A2               	movwf	___fldiv@a+2
  3189  065D  3000               	movlw	0
  3190  065E  00A1               	movwf	___fldiv@a+1
  3191  065F  3000               	movlw	0
  3192  0660  00A0               	movwf	___fldiv@a
  3193  0661                     i1l1696:
  3194  0661  17A2               	bsf	___fldiv@a+2,7
  3195  0662                     i1l1698:
  3196  0662  01A3               	clrf	___fldiv@a+3
  3197  0663  2E6C               	goto	i1l549
  3198  0664                     i1l1700:
  3199  0664  3000               	movlw	0
  3200  0665  00A3               	movwf	___fldiv@a+3
  3201  0666  3000               	movlw	0
  3202  0667  00A2               	movwf	___fldiv@a+2
  3203  0668  3000               	movlw	0
  3204  0669  00A1               	movwf	___fldiv@a+1
  3205  066A  3000               	movlw	0
  3206  066B  00A0               	movwf	___fldiv@a
  3207  066C                     i1l549:
  3208  066C  0823               	movf	___fldiv@a+3,w
  3209  066D  0422               	iorwf	___fldiv@a+2,w
  3210  066E  0421               	iorwf	___fldiv@a+1,w
  3211  066F  0420               	iorwf	___fldiv@a,w
  3212  0670  1D03               	skipz
  3213  0671  2E73               	goto	u214_21
  3214  0672  2E74               	goto	u214_20
  3215  0673                     u214_21:
  3216  0673  2E8D               	goto	i1l1710
  3217  0674                     u214_20:
  3218  0674                     i1l1702:
  3219  0674  3000               	movlw	0
  3220  0675  00A7               	movwf	___fldiv@b+3
  3221  0676  3000               	movlw	0
  3222  0677  00A6               	movwf	___fldiv@b+2
  3223  0678  3000               	movlw	0
  3224  0679  00A5               	movwf	___fldiv@b+1
  3225  067A  3000               	movlw	0
  3226  067B  00A4               	movwf	___fldiv@b
  3227  067C  3080               	movlw	128
  3228  067D  04A6               	iorwf	___fldiv@b+2,f
  3229  067E  307F               	movlw	127
  3230  067F  04A7               	iorwf	___fldiv@b+3,f
  3231  0680                     i1l1704:
  3232  0680  0831               	movf	___fldiv@sign,w
  3233  0681  00A8               	movwf	??___fldiv
  3234  0682  0828               	movf	??___fldiv,w
  3235  0683  04A7               	iorwf	___fldiv@b+3,f
  3236  0684                     i1l1706:
  3237  0684  0827               	movf	___fldiv@b+3,w
  3238  0685  00A3               	movwf	?___fldiv+3
  3239  0686  0826               	movf	___fldiv@b+2,w
  3240  0687  00A2               	movwf	?___fldiv+2
  3241  0688  0825               	movf	___fldiv@b+1,w
  3242  0689  00A1               	movwf	?___fldiv+1
  3243  068A  0824               	movf	___fldiv@b,w
  3244  068B  00A0               	movwf	?___fldiv
  3245  068C  2FEC               	goto	i1l551
  3246  068D                     i1l1710:
  3247  068D  0838               	movf	___fldiv@bexp,w
  3248  068E  1D03               	btfss	3,2
  3249  068F  2E91               	goto	u215_21
  3250  0690  2E92               	goto	u215_20
  3251  0691                     u215_21:
  3252  0691  2E9B               	goto	i1l1716
  3253  0692                     u215_20:
  3254  0692                     i1l1712:
  3255  0692  3000               	movlw	0
  3256  0693  00A3               	movwf	?___fldiv+3
  3257  0694  3000               	movlw	0
  3258  0695  00A2               	movwf	?___fldiv+2
  3259  0696  3000               	movlw	0
  3260  0697  00A1               	movwf	?___fldiv+1
  3261  0698  3000               	movlw	0
  3262  0699  00A0               	movwf	?___fldiv
  3263  069A  2FEC               	goto	i1l551
  3264  069B                     i1l1716:
  3265  069B  0838               	movf	___fldiv@bexp,w
  3266  069C  00A8               	movwf	??___fldiv
  3267  069D  01A9               	clrf	??___fldiv+1
  3268  069E  0829               	movf	??___fldiv+1,w
  3269  069F  00AB               	movwf	??___fldiv+3
  3270  06A0  0839               	movf	___fldiv@aexp,w
  3271  06A1  0228               	subwf	??___fldiv,w
  3272  06A2  00AA               	movwf	??___fldiv+2
  3273  06A3  1C03               	skipc
  3274  06A4  03AB               	decf	??___fldiv+3,f
  3275  06A5  082A               	movf	??___fldiv+2,w
  3276  06A6  3E7F               	addlw	127
  3277  06A7  00B2               	movwf	___fldiv@new_exp
  3278  06A8  082B               	movf	??___fldiv+3,w
  3279  06A9  1803               	skipnc
  3280  06AA  3E01               	addlw	1
  3281  06AB  3E00               	addlw	0
  3282  06AC  00B3               	movwf	___fldiv@new_exp+1
  3283  06AD                     i1l1718:
  3284  06AD  0827               	movf	___fldiv@b+3,w
  3285  06AE  00B0               	movwf	___fldiv@rem+3
  3286  06AF  0826               	movf	___fldiv@b+2,w
  3287  06B0  00AF               	movwf	___fldiv@rem+2
  3288  06B1  0825               	movf	___fldiv@b+1,w
  3289  06B2  00AE               	movwf	___fldiv@rem+1
  3290  06B3  0824               	movf	___fldiv@b,w
  3291  06B4  00AD               	movwf	___fldiv@rem
  3292  06B5                     i1l1720:
  3293  06B5  3000               	movlw	0
  3294  06B6  00A7               	movwf	___fldiv@b+3
  3295  06B7  3000               	movlw	0
  3296  06B8  00A6               	movwf	___fldiv@b+2
  3297  06B9  3000               	movlw	0
  3298  06BA  00A5               	movwf	___fldiv@b+1
  3299  06BB  3000               	movlw	0
  3300  06BC  00A4               	movwf	___fldiv@b
  3301  06BD                     i1l1722:
  3302  06BD  3000               	movlw	0
  3303  06BE  00B7               	movwf	___fldiv@grs+3
  3304  06BF  3000               	movlw	0
  3305  06C0  00B6               	movwf	___fldiv@grs+2
  3306  06C1  3000               	movlw	0
  3307  06C2  00B5               	movwf	___fldiv@grs+1
  3308  06C3  3000               	movlw	0
  3309  06C4  00B4               	movwf	___fldiv@grs
  3310  06C5                     i1l1724:
  3311  06C5  01B9               	clrf	___fldiv@aexp
  3312  06C6  2F11               	goto	i1l1744
  3313  06C7                     i1l1726:
  3314  06C7  0839               	movf	___fldiv@aexp,w
  3315  06C8  1903               	btfsc	3,2
  3316  06C9  2ECB               	goto	u216_21
  3317  06CA  2ECC               	goto	u216_20
  3318  06CB                     u216_21:
  3319  06CB  2EEC               	goto	i1l1736
  3320  06CC                     u216_20:
  3321  06CC                     i1l1728:
  3322  06CC  3001               	movlw	1
  3323  06CD  00A8               	movwf	??___fldiv
  3324  06CE                     u217_25:
  3325  06CE  1003               	clrc
  3326  06CF  0DAD               	rlf	___fldiv@rem,f
  3327  06D0  0DAE               	rlf	___fldiv@rem+1,f
  3328  06D1  0DAF               	rlf	___fldiv@rem+2,f
  3329  06D2  0DB0               	rlf	___fldiv@rem+3,f
  3330  06D3  0BA8               	decfsz	??___fldiv,f
  3331  06D4  2ECE               	goto	u217_25
  3332  06D5  3001               	movlw	1
  3333  06D6  00A8               	movwf	??___fldiv
  3334  06D7                     u218_25:
  3335  06D7  1003               	clrc
  3336  06D8  0DA4               	rlf	___fldiv@b,f
  3337  06D9  0DA5               	rlf	___fldiv@b+1,f
  3338  06DA  0DA6               	rlf	___fldiv@b+2,f
  3339  06DB  0DA7               	rlf	___fldiv@b+3,f
  3340  06DC  0BA8               	decfsz	??___fldiv,f
  3341  06DD  2ED7               	goto	u218_25
  3342  06DE                     i1l1730:
  3343  06DE  1FB7               	btfss	___fldiv@grs+3,7
  3344  06DF  2EE1               	goto	u219_21
  3345  06E0  2EE2               	goto	u219_20
  3346  06E1                     u219_21:
  3347  06E1  2EE3               	goto	i1l1734
  3348  06E2                     u219_20:
  3349  06E2                     i1l1732:
  3350  06E2  1424               	bsf	___fldiv@b,0
  3351  06E3                     i1l1734:
  3352  06E3  3001               	movlw	1
  3353  06E4  00A8               	movwf	??___fldiv
  3354  06E5                     u220_25:
  3355  06E5  1003               	clrc
  3356  06E6  0DB4               	rlf	___fldiv@grs,f
  3357  06E7  0DB5               	rlf	___fldiv@grs+1,f
  3358  06E8  0DB6               	rlf	___fldiv@grs+2,f
  3359  06E9  0DB7               	rlf	___fldiv@grs+3,f
  3360  06EA  0BA8               	decfsz	??___fldiv,f
  3361  06EB  2EE5               	goto	u220_25
  3362  06EC                     i1l1736:
  3363  06EC  0823               	movf	___fldiv@a+3,w
  3364  06ED  0230               	subwf	___fldiv@rem+3,w
  3365  06EE  1D03               	skipz
  3366  06EF  2EFA               	goto	u221_25
  3367  06F0  0822               	movf	___fldiv@a+2,w
  3368  06F1  022F               	subwf	___fldiv@rem+2,w
  3369  06F2  1D03               	skipz
  3370  06F3  2EFA               	goto	u221_25
  3371  06F4  0821               	movf	___fldiv@a+1,w
  3372  06F5  022E               	subwf	___fldiv@rem+1,w
  3373  06F6  1D03               	skipz
  3374  06F7  2EFA               	goto	u221_25
  3375  06F8  0820               	movf	___fldiv@a,w
  3376  06F9  022D               	subwf	___fldiv@rem,w
  3377  06FA                     u221_25:
  3378  06FA  1C03               	skipc
  3379  06FB  2EFD               	goto	u221_21
  3380  06FC  2EFE               	goto	u221_20
  3381  06FD                     u221_21:
  3382  06FD  2F0D               	goto	i1l1742
  3383  06FE                     u221_20:
  3384  06FE                     i1l1738:
  3385  06FE  1737               	bsf	___fldiv@grs+3,6
  3386  06FF                     i1l1740:
  3387  06FF  0820               	movf	___fldiv@a,w
  3388  0700  02AD               	subwf	___fldiv@rem,f
  3389  0701  0821               	movf	___fldiv@a+1,w
  3390  0702  1C03               	skipc
  3391  0703  0F21               	incfsz	___fldiv@a+1,w
  3392  0704  02AE               	subwf	___fldiv@rem+1,f
  3393  0705  0822               	movf	___fldiv@a+2,w
  3394  0706  1C03               	skipc
  3395  0707  0F22               	incfsz	___fldiv@a+2,w
  3396  0708  02AF               	subwf	___fldiv@rem+2,f
  3397  0709  0823               	movf	___fldiv@a+3,w
  3398  070A  1C03               	skipc
  3399  070B  0F23               	incfsz	___fldiv@a+3,w
  3400  070C  02B0               	subwf	___fldiv@rem+3,f
  3401  070D                     i1l1742:
  3402  070D  3001               	movlw	1
  3403  070E  00A8               	movwf	??___fldiv
  3404  070F  0828               	movf	??___fldiv,w
  3405  0710  07B9               	addwf	___fldiv@aexp,f
  3406  0711                     i1l1744:
  3407  0711  301A               	movlw	26
  3408  0712  0239               	subwf	___fldiv@aexp,w
  3409  0713  1C03               	skipc
  3410  0714  2F16               	goto	u222_21
  3411  0715  2F17               	goto	u222_20
  3412  0716                     u222_21:
  3413  0716  2EC7               	goto	i1l1726
  3414  0717                     u222_20:
  3415  0717                     i1l1746:
  3416  0717  0830               	movf	___fldiv@rem+3,w
  3417  0718  042F               	iorwf	___fldiv@rem+2,w
  3418  0719  042E               	iorwf	___fldiv@rem+1,w
  3419  071A  042D               	iorwf	___fldiv@rem,w
  3420  071B  1903               	skipnz
  3421  071C  2F1E               	goto	u223_21
  3422  071D  2F1F               	goto	u223_20
  3423  071E                     u223_21:
  3424  071E  2F3E               	goto	i1l1760
  3425  071F                     u223_20:
  3426  071F                     i1l1748:
  3427  071F  1434               	bsf	___fldiv@grs,0
  3428  0720  2F3E               	goto	i1l1760
  3429  0721                     i1l1750:
  3430  0721  3001               	movlw	1
  3431  0722  00A8               	movwf	??___fldiv
  3432  0723                     u224_25:
  3433  0723  1003               	clrc
  3434  0724  0DA4               	rlf	___fldiv@b,f
  3435  0725  0DA5               	rlf	___fldiv@b+1,f
  3436  0726  0DA6               	rlf	___fldiv@b+2,f
  3437  0727  0DA7               	rlf	___fldiv@b+3,f
  3438  0728  0BA8               	decfsz	??___fldiv,f
  3439  0729  2F23               	goto	u224_25
  3440  072A                     i1l1752:
  3441  072A  1FB7               	btfss	___fldiv@grs+3,7
  3442  072B  2F2D               	goto	u225_21
  3443  072C  2F2E               	goto	u225_20
  3444  072D                     u225_21:
  3445  072D  2F2F               	goto	i1l1756
  3446  072E                     u225_20:
  3447  072E                     i1l1754:
  3448  072E  1424               	bsf	___fldiv@b,0
  3449  072F                     i1l1756:
  3450  072F  3001               	movlw	1
  3451  0730  00A8               	movwf	??___fldiv
  3452  0731                     u226_25:
  3453  0731  1003               	clrc
  3454  0732  0DB4               	rlf	___fldiv@grs,f
  3455  0733  0DB5               	rlf	___fldiv@grs+1,f
  3456  0734  0DB6               	rlf	___fldiv@grs+2,f
  3457  0735  0DB7               	rlf	___fldiv@grs+3,f
  3458  0736  0BA8               	decfsz	??___fldiv,f
  3459  0737  2F31               	goto	u226_25
  3460  0738                     i1l1758:
  3461  0738  30FF               	movlw	255
  3462  0739  07B2               	addwf	___fldiv@new_exp,f
  3463  073A  1803               	skipnc
  3464  073B  0AB3               	incf	___fldiv@new_exp+1,f
  3465  073C  30FF               	movlw	255
  3466  073D  07B3               	addwf	___fldiv@new_exp+1,f
  3467  073E                     i1l1760:
  3468  073E  1FA6               	btfss	___fldiv@b+2,7
  3469  073F  2F41               	goto	u227_21
  3470  0740  2F42               	goto	u227_20
  3471  0741                     u227_21:
  3472  0741  2F21               	goto	i1l1750
  3473  0742                     u227_20:
  3474  0742                     i1l1762:
  3475  0742  01B9               	clrf	___fldiv@aexp
  3476  0743                     i1l1764:
  3477  0743  1FB7               	btfss	___fldiv@grs+3,7
  3478  0744  2F46               	goto	u228_21
  3479  0745  2F47               	goto	u228_20
  3480  0746                     u228_21:
  3481  0746  2F63               	goto	i1l1772
  3482  0747                     u228_20:
  3483  0747                     i1l1766:
  3484  0747  30FF               	movlw	255
  3485  0748  0534               	andwf	___fldiv@grs,w
  3486  0749  00A8               	movwf	??___fldiv
  3487  074A  30FF               	movlw	255
  3488  074B  0535               	andwf	___fldiv@grs+1,w
  3489  074C  00A9               	movwf	??___fldiv+1
  3490  074D  30FF               	movlw	255
  3491  074E  0536               	andwf	___fldiv@grs+2,w
  3492  074F  00AA               	movwf	??___fldiv+2
  3493  0750  307F               	movlw	127
  3494  0751  0537               	andwf	___fldiv@grs+3,w
  3495  0752  00AB               	movwf	??___fldiv+3
  3496  0753  082B               	movf	??___fldiv+3,w
  3497  0754  042A               	iorwf	??___fldiv+2,w
  3498  0755  0429               	iorwf	??___fldiv+1,w
  3499  0756  0428               	iorwf	??___fldiv,w
  3500  0757  1903               	skipnz
  3501  0758  2F5A               	goto	u229_21
  3502  0759  2F5B               	goto	u229_20
  3503  075A                     u229_21:
  3504  075A  2F5E               	goto	i1l565
  3505  075B                     u229_20:
  3506  075B                     i1l1768:
  3507  075B  01B9               	clrf	___fldiv@aexp
  3508  075C  0AB9               	incf	___fldiv@aexp,f
  3509  075D  2F63               	goto	i1l1772
  3510  075E                     i1l565:
  3511  075E  1C24               	btfss	___fldiv@b,0
  3512  075F  2F61               	goto	u230_21
  3513  0760  2F62               	goto	u230_20
  3514  0761                     u230_21:
  3515  0761  2F63               	goto	i1l1772
  3516  0762                     u230_20:
  3517  0762  2F5B               	goto	i1l1768
  3518  0763                     i1l1772:
  3519  0763  0839               	movf	___fldiv@aexp,w
  3520  0764  1903               	btfsc	3,2
  3521  0765  2F67               	goto	u231_21
  3522  0766  2F68               	goto	u231_20
  3523  0767                     u231_21:
  3524  0767  2F99               	goto	i1l1782
  3525  0768                     u231_20:
  3526  0768                     i1l1774:
  3527  0768  3001               	movlw	1
  3528  0769  07A4               	addwf	___fldiv@b,f
  3529  076A  3000               	movlw	0
  3530  076B  1803               	skipnc
  3531  076C  3001               	movlw	1
  3532  076D  07A5               	addwf	___fldiv@b+1,f
  3533  076E  3000               	movlw	0
  3534  076F  1803               	skipnc
  3535  0770  3001               	movlw	1
  3536  0771  07A6               	addwf	___fldiv@b+2,f
  3537  0772  3000               	movlw	0
  3538  0773  1803               	skipnc
  3539  0774  3001               	movlw	1
  3540  0775  07A7               	addwf	___fldiv@b+3,f
  3541  0776                     i1l1776:
  3542  0776  1C27               	btfss	___fldiv@b+3,0
  3543  0777  2F79               	goto	u232_21
  3544  0778  2F7A               	goto	u232_20
  3545  0779                     u232_21:
  3546  0779  2F99               	goto	i1l1782
  3547  077A                     u232_20:
  3548  077A                     i1l1778:
  3549  077A  0824               	movf	___fldiv@b,w
  3550  077B  00A8               	movwf	??___fldiv
  3551  077C  0825               	movf	___fldiv@b+1,w
  3552  077D  00A9               	movwf	??___fldiv+1
  3553  077E  0826               	movf	___fldiv@b+2,w
  3554  077F  00AA               	movwf	??___fldiv+2
  3555  0780  0827               	movf	___fldiv@b+3,w
  3556  0781  00AB               	movwf	??___fldiv+3
  3557  0782  3001               	movlw	1
  3558  0783  00AC               	movwf	??___fldiv+4
  3559  0784                     u233_25:
  3560  0784  0D2B               	rlf	??___fldiv+3,w
  3561  0785  0CAB               	rrf	??___fldiv+3,f
  3562  0786  0CAA               	rrf	??___fldiv+2,f
  3563  0787  0CA9               	rrf	??___fldiv+1,f
  3564  0788  0CA8               	rrf	??___fldiv,f
  3565  0789                     u233_20:
  3566  0789  0BAC               	decfsz	??___fldiv+4,f
  3567  078A  2F84               	goto	u233_25
  3568  078B  082B               	movf	??___fldiv+3,w
  3569  078C  00A7               	movwf	___fldiv@b+3
  3570  078D  082A               	movf	??___fldiv+2,w
  3571  078E  00A6               	movwf	___fldiv@b+2
  3572  078F  0829               	movf	??___fldiv+1,w
  3573  0790  00A5               	movwf	___fldiv@b+1
  3574  0791  0828               	movf	??___fldiv,w
  3575  0792  00A4               	movwf	___fldiv@b
  3576  0793                     i1l1780:
  3577  0793  3001               	movlw	1
  3578  0794  07B2               	addwf	___fldiv@new_exp,f
  3579  0795  1803               	skipnc
  3580  0796  0AB3               	incf	___fldiv@new_exp+1,f
  3581  0797  3000               	movlw	0
  3582  0798  07B3               	addwf	___fldiv@new_exp+1,f
  3583  0799                     i1l1782:
  3584  0799  0833               	movf	___fldiv@new_exp+1,w
  3585  079A  3A80               	xorlw	128
  3586  079B  00FF               	movwf	btemp+1
  3587  079C  3080               	movlw	128
  3588  079D  027F               	subwf	btemp+1,w
  3589  079E  1D03               	skipz
  3590  079F  2FA2               	goto	u234_25
  3591  07A0  30FF               	movlw	255
  3592  07A1  0232               	subwf	___fldiv@new_exp,w
  3593  07A2                     u234_25:
  3594  07A2  1C03               	skipc
  3595  07A3  2FA5               	goto	u234_21
  3596  07A4  2FA6               	goto	u234_20
  3597  07A5                     u234_21:
  3598  07A5  2FB4               	goto	i1l1786
  3599  07A6                     u234_20:
  3600  07A6                     i1l1784:
  3601  07A6  30FF               	movlw	255
  3602  07A7  1283               	bcf	3,5	;RP0=0, select bank0
  3603  07A8  1303               	bcf	3,6	;RP1=0, select bank0
  3604  07A9  00B2               	movwf	___fldiv@new_exp
  3605  07AA  3000               	movlw	0
  3606  07AB  00B3               	movwf	___fldiv@new_exp+1
  3607  07AC  3000               	movlw	0
  3608  07AD  00A7               	movwf	___fldiv@b+3
  3609  07AE  3000               	movlw	0
  3610  07AF  00A6               	movwf	___fldiv@b+2
  3611  07B0  3000               	movlw	0
  3612  07B1  00A5               	movwf	___fldiv@b+1
  3613  07B2  3000               	movlw	0
  3614  07B3  00A4               	movwf	___fldiv@b
  3615  07B4                     i1l1786:
  3616  07B4  1283               	bcf	3,5	;RP0=0, select bank0
  3617  07B5  1303               	bcf	3,6	;RP1=0, select bank0
  3618  07B6  0833               	movf	___fldiv@new_exp+1,w
  3619  07B7  3A80               	xorlw	128
  3620  07B8  00FF               	movwf	btemp+1
  3621  07B9  3080               	movlw	128
  3622  07BA  027F               	subwf	btemp+1,w
  3623  07BB  1D03               	skipz
  3624  07BC  2FBF               	goto	u235_25
  3625  07BD  3001               	movlw	1
  3626  07BE  0232               	subwf	___fldiv@new_exp,w
  3627  07BF                     u235_25:
  3628  07BF  1803               	skipnc
  3629  07C0  2FC2               	goto	u235_21
  3630  07C1  2FC3               	goto	u235_20
  3631  07C2                     u235_21:
  3632  07C2  2FD0               	goto	i1l571
  3633  07C3                     u235_20:
  3634  07C3                     i1l1788:
  3635  07C3  1283               	bcf	3,5	;RP0=0, select bank0
  3636  07C4  1303               	bcf	3,6	;RP1=0, select bank0
  3637  07C5  01B2               	clrf	___fldiv@new_exp
  3638  07C6  01B3               	clrf	___fldiv@new_exp+1
  3639  07C7                     i1l1790:
  3640  07C7  3000               	movlw	0
  3641  07C8  00A7               	movwf	___fldiv@b+3
  3642  07C9  3000               	movlw	0
  3643  07CA  00A6               	movwf	___fldiv@b+2
  3644  07CB  3000               	movlw	0
  3645  07CC  00A5               	movwf	___fldiv@b+1
  3646  07CD  3000               	movlw	0
  3647  07CE  00A4               	movwf	___fldiv@b
  3648  07CF                     i1l1792:
  3649  07CF  01B1               	clrf	___fldiv@sign
  3650  07D0                     i1l571:
  3651  07D0  1283               	bcf	3,5	;RP0=0, select bank0
  3652  07D1  1303               	bcf	3,6	;RP1=0, select bank0
  3653  07D2  0832               	movf	___fldiv@new_exp,w
  3654  07D3  00A8               	movwf	??___fldiv
  3655  07D4  0828               	movf	??___fldiv,w
  3656  07D5  00B8               	movwf	___fldiv@bexp
  3657  07D6                     i1l1794:
  3658  07D6  1C38               	btfss	___fldiv@bexp,0
  3659  07D7  2FD9               	goto	u236_21
  3660  07D8  2FDA               	goto	u236_20
  3661  07D9                     u236_21:
  3662  07D9  2FDC               	goto	i1l1798
  3663  07DA                     u236_20:
  3664  07DA                     i1l1796:
  3665  07DA  17A6               	bsf	___fldiv@b+2,7
  3666  07DB  2FE0               	goto	i1l573
  3667  07DC                     i1l1798:
  3668  07DC  307F               	movlw	127
  3669  07DD  00A8               	movwf	??___fldiv
  3670  07DE  0828               	movf	??___fldiv,w
  3671  07DF  05A6               	andwf	___fldiv@b+2,f
  3672  07E0                     i1l573:
  3673  07E0  0838               	movf	___fldiv@bexp,w
  3674  07E1  00A8               	movwf	??___fldiv
  3675  07E2  1003               	clrc
  3676  07E3  0C28               	rrf	??___fldiv,w
  3677  07E4  00A9               	movwf	??___fldiv+1
  3678  07E5  0829               	movf	??___fldiv+1,w
  3679  07E6  00A7               	movwf	___fldiv@b+3
  3680  07E7  0831               	movf	___fldiv@sign,w
  3681  07E8  00A8               	movwf	??___fldiv
  3682  07E9  0828               	movf	??___fldiv,w
  3683  07EA  04A7               	iorwf	___fldiv@b+3,f
  3684  07EB  2E84               	goto	i1l1706
  3685  07EC                     i1l551:
  3686  07EC  0008               	return
  3687  07ED                     __end_of___fldiv:
  3688                           
  3689                           	psect	text9
  3690  0388                     __ptext9:	
  3691 ;; *************** function ___fladd *****************
  3692 ;; Defined at:
  3693 ;;		line 10 in file "C:\Program Files\Microchip\xc8\v2.35\pic\sources\c90\common\sprcadd.c"
  3694 ;; Parameters:    Size  Location     Type
  3695 ;;  b               4   52[BANK0 ] unsigned char 
  3696 ;;  a               4   56[BANK0 ] unsigned char 
  3697 ;; Auto vars:     Size  Location     Type
  3698 ;;  grs             1   71[BANK0 ] unsigned char 
  3699 ;;  bexp            1   70[BANK0 ] unsigned char 
  3700 ;;  aexp            1   69[BANK0 ] unsigned char 
  3701 ;;  signs           1   68[BANK0 ] unsigned char 
  3702 ;; Return value:  Size  Location     Type
  3703 ;;                  4   52[BANK0 ] unsigned char 
  3704 ;; Registers used:
  3705 ;;		wreg, status,2, status,0, btemp+1
  3706 ;; Tracked objects:
  3707 ;;		On entry : 0/0
  3708 ;;		On exit  : 0/0
  3709 ;;		Unchanged: 0/0
  3710 ;; Data sizes:     COMMON   BANK0   BANK1   BANK3   BANK2
  3711 ;;      Params:         0       8       0       0       0
  3712 ;;      Locals:         0       4       0       0       0
  3713 ;;      Temps:          0       8       0       0       0
  3714 ;;      Totals:         0      20       0       0       0
  3715 ;;Total ram usage:       20 bytes
  3716 ;; Hardware stack levels used: 1
  3717 ;; This function calls:
  3718 ;;		Nothing
  3719 ;; This function is called by:
  3720 ;;		_map
  3721 ;; This function uses a non-reentrant model
  3722 ;;
  3723                           
  3724  0388                     ___fladd:	
  3725                           ;psect for function ___fladd
  3726                           
  3727  0388                     i1l1468:	
  3728                           ;incstack = 0
  3729                           ; Regs used in ___fladd: [wreg+status,2+status,0+btemp+1]
  3730                           
  3731  0388  1283               	bcf	3,5	;RP0=0, select bank0
  3732  0389  1303               	bcf	3,6	;RP1=0, select bank0
  3733  038A  0857               	movf	___fladd@b+3,w
  3734  038B  3980               	andlw	128
  3735  038C  00DC               	movwf	??___fladd
  3736  038D  085C               	movf	??___fladd,w
  3737  038E  00E4               	movwf	___fladd@signs
  3738  038F                     i1l1470:
  3739  038F  0857               	movf	___fladd@b+3,w
  3740  0390  00DC               	movwf	??___fladd
  3741  0391  075C               	addwf	??___fladd,w
  3742  0392  00DD               	movwf	??___fladd+1
  3743  0393  085D               	movf	??___fladd+1,w
  3744  0394  00E6               	movwf	___fladd@bexp
  3745  0395                     i1l1472:
  3746  0395  1FD6               	btfss	___fladd@b+2,7
  3747  0396  2B98               	goto	u162_21
  3748  0397  2B99               	goto	u162_20
  3749  0398                     u162_21:
  3750  0398  2B9A               	goto	i1l1476
  3751  0399                     u162_20:
  3752  0399                     i1l1474:
  3753  0399  1466               	bsf	___fladd@bexp,0
  3754  039A                     i1l1476:
  3755  039A  0866               	movf	___fladd@bexp,w
  3756  039B  1903               	btfsc	3,2
  3757  039C  2B9E               	goto	u163_21
  3758  039D  2B9F               	goto	u163_20
  3759  039E                     u163_21:
  3760  039E  2BAF               	goto	i1l1486
  3761  039F                     u163_20:
  3762  039F                     i1l1478:
  3763  039F  0A66               	incf	___fladd@bexp,w
  3764  03A0  1D03               	btfss	3,2
  3765  03A1  2BA3               	goto	u164_21
  3766  03A2  2BA4               	goto	u164_20
  3767  03A3                     u164_21:
  3768  03A3  2BAC               	goto	i1l1482
  3769  03A4                     u164_20:
  3770  03A4                     i1l1480:
  3771  03A4  3000               	movlw	0
  3772  03A5  00D7               	movwf	___fladd@b+3
  3773  03A6  3000               	movlw	0
  3774  03A7  00D6               	movwf	___fladd@b+2
  3775  03A8  3000               	movlw	0
  3776  03A9  00D5               	movwf	___fladd@b+1
  3777  03AA  3000               	movlw	0
  3778  03AB  00D4               	movwf	___fladd@b
  3779  03AC                     i1l1482:
  3780  03AC  17D6               	bsf	___fladd@b+2,7
  3781  03AD                     i1l1484:
  3782  03AD  01D7               	clrf	___fladd@b+3
  3783  03AE  2BB7               	goto	i1l1488
  3784  03AF                     i1l1486:
  3785  03AF  3000               	movlw	0
  3786  03B0  00D7               	movwf	___fladd@b+3
  3787  03B1  3000               	movlw	0
  3788  03B2  00D6               	movwf	___fladd@b+2
  3789  03B3  3000               	movlw	0
  3790  03B4  00D5               	movwf	___fladd@b+1
  3791  03B5  3000               	movlw	0
  3792  03B6  00D4               	movwf	___fladd@b
  3793  03B7                     i1l1488:
  3794  03B7  085B               	movf	___fladd@a+3,w
  3795  03B8  3980               	andlw	128
  3796  03B9  00DC               	movwf	??___fladd
  3797  03BA  085C               	movf	??___fladd,w
  3798  03BB  00E5               	movwf	___fladd@aexp
  3799  03BC                     i1l1490:
  3800  03BC  0865               	movf	___fladd@aexp,w
  3801  03BD  0664               	xorwf	___fladd@signs,w
  3802  03BE  1903               	skipnz
  3803  03BF  2BC1               	goto	u165_21
  3804  03C0  2BC2               	goto	u165_20
  3805  03C1                     u165_21:
  3806  03C1  2BC3               	goto	i1l1494
  3807  03C2                     u165_20:
  3808  03C2                     i1l1492:
  3809  03C2  1764               	bsf	___fladd@signs,6
  3810  03C3                     i1l1494:
  3811  03C3  085B               	movf	___fladd@a+3,w
  3812  03C4  00DC               	movwf	??___fladd
  3813  03C5  075C               	addwf	??___fladd,w
  3814  03C6  00DD               	movwf	??___fladd+1
  3815  03C7  085D               	movf	??___fladd+1,w
  3816  03C8  00E5               	movwf	___fladd@aexp
  3817  03C9                     i1l1496:
  3818  03C9  1FDA               	btfss	___fladd@a+2,7
  3819  03CA  2BCC               	goto	u166_21
  3820  03CB  2BCD               	goto	u166_20
  3821  03CC                     u166_21:
  3822  03CC  2BCE               	goto	i1l1500
  3823  03CD                     u166_20:
  3824  03CD                     i1l1498:
  3825  03CD  1465               	bsf	___fladd@aexp,0
  3826  03CE                     i1l1500:
  3827  03CE  0865               	movf	___fladd@aexp,w
  3828  03CF  1903               	btfsc	3,2
  3829  03D0  2BD2               	goto	u167_21
  3830  03D1  2BD3               	goto	u167_20
  3831  03D2                     u167_21:
  3832  03D2  2BE3               	goto	i1l1510
  3833  03D3                     u167_20:
  3834  03D3                     i1l1502:
  3835  03D3  0A65               	incf	___fladd@aexp,w
  3836  03D4  1D03               	btfss	3,2
  3837  03D5  2BD7               	goto	u168_21
  3838  03D6  2BD8               	goto	u168_20
  3839  03D7                     u168_21:
  3840  03D7  2BE0               	goto	i1l1506
  3841  03D8                     u168_20:
  3842  03D8                     i1l1504:
  3843  03D8  3000               	movlw	0
  3844  03D9  00DB               	movwf	___fladd@a+3
  3845  03DA  3000               	movlw	0
  3846  03DB  00DA               	movwf	___fladd@a+2
  3847  03DC  3000               	movlw	0
  3848  03DD  00D9               	movwf	___fladd@a+1
  3849  03DE  3000               	movlw	0
  3850  03DF  00D8               	movwf	___fladd@a
  3851  03E0                     i1l1506:
  3852  03E0  17DA               	bsf	___fladd@a+2,7
  3853  03E1                     i1l1508:
  3854  03E1  01DB               	clrf	___fladd@a+3
  3855  03E2  2BEB               	goto	i1l493
  3856  03E3                     i1l1510:
  3857  03E3  3000               	movlw	0
  3858  03E4  00DB               	movwf	___fladd@a+3
  3859  03E5  3000               	movlw	0
  3860  03E6  00DA               	movwf	___fladd@a+2
  3861  03E7  3000               	movlw	0
  3862  03E8  00D9               	movwf	___fladd@a+1
  3863  03E9  3000               	movlw	0
  3864  03EA  00D8               	movwf	___fladd@a
  3865  03EB                     i1l493:
  3866  03EB  0866               	movf	___fladd@bexp,w
  3867  03EC  0265               	subwf	___fladd@aexp,w
  3868  03ED  1803               	skipnc
  3869  03EE  2BF0               	goto	u169_21
  3870  03EF  2BF1               	goto	u169_20
  3871  03F0                     u169_21:
  3872  03F0  2C35               	goto	i1l1546
  3873  03F1                     u169_20:
  3874  03F1                     i1l1512:
  3875  03F1  1F64               	btfss	___fladd@signs,6
  3876  03F2  2BF4               	goto	u170_21
  3877  03F3  2BF5               	goto	u170_20
  3878  03F4                     u170_21:
  3879  03F4  2BF9               	goto	i1l1516
  3880  03F5                     u170_20:
  3881  03F5                     i1l1514:
  3882  03F5  3080               	movlw	128
  3883  03F6  00DC               	movwf	??___fladd
  3884  03F7  085C               	movf	??___fladd,w
  3885  03F8  06E4               	xorwf	___fladd@signs,f
  3886  03F9                     i1l1516:
  3887  03F9  0866               	movf	___fladd@bexp,w
  3888  03FA  00DC               	movwf	??___fladd
  3889  03FB  085C               	movf	??___fladd,w
  3890  03FC  00E7               	movwf	___fladd@grs
  3891  03FD                     i1l1518:
  3892  03FD  0865               	movf	___fladd@aexp,w
  3893  03FE  00DC               	movwf	??___fladd
  3894  03FF  085C               	movf	??___fladd,w
  3895  0400  00E6               	movwf	___fladd@bexp
  3896  0401                     i1l1520:
  3897  0401  0867               	movf	___fladd@grs,w
  3898  0402  00DC               	movwf	??___fladd
  3899  0403  085C               	movf	??___fladd,w
  3900  0404  00E5               	movwf	___fladd@aexp
  3901  0405                     i1l1522:
  3902  0405  0854               	movf	___fladd@b,w
  3903  0406  00DC               	movwf	??___fladd
  3904  0407  085C               	movf	??___fladd,w
  3905  0408  00E7               	movwf	___fladd@grs
  3906  0409                     i1l1524:
  3907  0409  0858               	movf	___fladd@a,w
  3908  040A  00DC               	movwf	??___fladd
  3909  040B  085C               	movf	??___fladd,w
  3910  040C  00D4               	movwf	___fladd@b
  3911  040D                     i1l1526:
  3912  040D  0867               	movf	___fladd@grs,w
  3913  040E  00DC               	movwf	??___fladd
  3914  040F  085C               	movf	??___fladd,w
  3915  0410  00D8               	movwf	___fladd@a
  3916  0411                     i1l1528:
  3917  0411  0855               	movf	___fladd@b+1,w
  3918  0412  00DC               	movwf	??___fladd
  3919  0413  085C               	movf	??___fladd,w
  3920  0414  00E7               	movwf	___fladd@grs
  3921  0415                     i1l1530:
  3922  0415  0859               	movf	___fladd@a+1,w
  3923  0416  00DC               	movwf	??___fladd
  3924  0417  085C               	movf	??___fladd,w
  3925  0418  00D5               	movwf	___fladd@b+1
  3926  0419                     i1l1532:
  3927  0419  0867               	movf	___fladd@grs,w
  3928  041A  00DC               	movwf	??___fladd
  3929  041B  085C               	movf	??___fladd,w
  3930  041C  00D9               	movwf	___fladd@a+1
  3931  041D                     i1l1534:
  3932  041D  0856               	movf	___fladd@b+2,w
  3933  041E  00DC               	movwf	??___fladd
  3934  041F  085C               	movf	??___fladd,w
  3935  0420  00E7               	movwf	___fladd@grs
  3936  0421                     i1l1536:
  3937  0421  085A               	movf	___fladd@a+2,w
  3938  0422  00DC               	movwf	??___fladd
  3939  0423  085C               	movf	??___fladd,w
  3940  0424  00D6               	movwf	___fladd@b+2
  3941  0425                     i1l1538:
  3942  0425  0867               	movf	___fladd@grs,w
  3943  0426  00DC               	movwf	??___fladd
  3944  0427  085C               	movf	??___fladd,w
  3945  0428  00DA               	movwf	___fladd@a+2
  3946  0429                     i1l1540:
  3947  0429  0857               	movf	___fladd@b+3,w
  3948  042A  00DC               	movwf	??___fladd
  3949  042B  085C               	movf	??___fladd,w
  3950  042C  00E7               	movwf	___fladd@grs
  3951  042D                     i1l1542:
  3952  042D  085B               	movf	___fladd@a+3,w
  3953  042E  00DC               	movwf	??___fladd
  3954  042F  085C               	movf	??___fladd,w
  3955  0430  00D7               	movwf	___fladd@b+3
  3956  0431                     i1l1544:
  3957  0431  0867               	movf	___fladd@grs,w
  3958  0432  00DC               	movwf	??___fladd
  3959  0433  085C               	movf	??___fladd,w
  3960  0434  00DB               	movwf	___fladd@a+3
  3961  0435                     i1l1546:
  3962  0435  01E7               	clrf	___fladd@grs
  3963  0436                     i1l1548:
  3964  0436  0865               	movf	___fladd@aexp,w
  3965  0437  00DC               	movwf	??___fladd
  3966  0438  01DD               	clrf	??___fladd+1
  3967  0439  085D               	movf	??___fladd+1,w
  3968  043A  00DF               	movwf	??___fladd+3
  3969  043B  0866               	movf	___fladd@bexp,w
  3970  043C  025C               	subwf	??___fladd,w
  3971  043D  00DE               	movwf	??___fladd+2
  3972  043E  1C03               	skipc
  3973  043F  03DF               	decf	??___fladd+3,f
  3974  0440  085F               	movf	??___fladd+3,w
  3975  0441  3A80               	xorlw	128
  3976  0442  00FF               	movwf	btemp+1
  3977  0443  3080               	movlw	128
  3978  0444  027F               	subwf	btemp+1,w
  3979  0445  1D03               	skipz
  3980  0446  2C49               	goto	u171_25
  3981  0447  301A               	movlw	26
  3982  0448  025E               	subwf	??___fladd+2,w
  3983  0449                     u171_25:
  3984  0449  1C03               	skipc
  3985  044A  2C4C               	goto	u171_21
  3986  044B  2C4D               	goto	u171_20
  3987  044C                     u171_21:
  3988  044C  2C8A               	goto	i1l1564
  3989  044D                     u171_20:
  3990  044D                     i1l1550:
  3991  044D  1283               	bcf	3,5	;RP0=0, select bank0
  3992  044E  1303               	bcf	3,6	;RP1=0, select bank0
  3993  044F  0857               	movf	___fladd@b+3,w
  3994  0450  0456               	iorwf	___fladd@b+2,w
  3995  0451  0455               	iorwf	___fladd@b+1,w
  3996  0452  0454               	iorwf	___fladd@b,w
  3997  0453  1D03               	skipz
  3998  0454  2C56               	goto	u172_21
  3999  0455  2C58               	goto	u172_20
  4000  0456                     u172_21:
  4001  0456  3001               	movlw	1
  4002  0457  2C59               	goto	u173_20
  4003  0458                     u172_20:
  4004  0458  3000               	movlw	0
  4005  0459                     u173_20:
  4006  0459  00DC               	movwf	??___fladd
  4007  045A  085C               	movf	??___fladd,w
  4008  045B  00E7               	movwf	___fladd@grs
  4009  045C  3000               	movlw	0
  4010  045D  00D7               	movwf	___fladd@b+3
  4011  045E  3000               	movlw	0
  4012  045F  00D6               	movwf	___fladd@b+2
  4013  0460  3000               	movlw	0
  4014  0461  00D5               	movwf	___fladd@b+1
  4015  0462  3000               	movlw	0
  4016  0463  00D4               	movwf	___fladd@b
  4017  0464  0865               	movf	___fladd@aexp,w
  4018  0465  00DC               	movwf	??___fladd
  4019  0466  085C               	movf	??___fladd,w
  4020  0467  00E6               	movwf	___fladd@bexp
  4021  0468  2C92               	goto	i1l497
  4022  0469                     i1l499:
  4023  0469  1C67               	btfss	___fladd@grs,0
  4024  046A  2C6C               	goto	u174_21
  4025  046B  2C6D               	goto	u174_20
  4026  046C                     u174_21:
  4027  046C  2C76               	goto	i1l1554
  4028  046D                     u174_20:
  4029  046D                     i1l1552:
  4030  046D  0867               	movf	___fladd@grs,w
  4031  046E  00DC               	movwf	??___fladd
  4032  046F  1003               	clrc
  4033  0470  0C5C               	rrf	??___fladd,w
  4034  0471  3801               	iorlw	1
  4035  0472  00DD               	movwf	??___fladd+1
  4036  0473  085D               	movf	??___fladd+1,w
  4037  0474  00E7               	movwf	___fladd@grs
  4038  0475  2C78               	goto	i1l1556
  4039  0476                     i1l1554:
  4040  0476  1003               	clrc
  4041  0477  0CE7               	rrf	___fladd@grs,f
  4042  0478                     i1l1556:
  4043  0478  1C54               	btfss	___fladd@b,0
  4044  0479  2C7B               	goto	u175_21
  4045  047A  2C7C               	goto	u175_20
  4046  047B                     u175_21:
  4047  047B  2C7D               	goto	i1l1560
  4048  047C                     u175_20:
  4049  047C                     i1l1558:
  4050  047C  17E7               	bsf	___fladd@grs,7
  4051  047D                     i1l1560:
  4052  047D  3001               	movlw	1
  4053  047E  00DC               	movwf	??___fladd
  4054  047F                     u176_25:
  4055  047F  0D57               	rlf	___fladd@b+3,w
  4056  0480  0CD7               	rrf	___fladd@b+3,f
  4057  0481  0CD6               	rrf	___fladd@b+2,f
  4058  0482  0CD5               	rrf	___fladd@b+1,f
  4059  0483  0CD4               	rrf	___fladd@b,f
  4060  0484  0BDC               	decfsz	??___fladd& (0+127),f
  4061  0485  2C7F               	goto	u176_25
  4062  0486                     i1l1562:
  4063  0486  3001               	movlw	1
  4064  0487  00DC               	movwf	??___fladd
  4065  0488  085C               	movf	??___fladd,w
  4066  0489  07E6               	addwf	___fladd@bexp,f
  4067  048A                     i1l1564:
  4068  048A  1283               	bcf	3,5	;RP0=0, select bank0
  4069  048B  1303               	bcf	3,6	;RP1=0, select bank0
  4070  048C  0865               	movf	___fladd@aexp,w
  4071  048D  0266               	subwf	___fladd@bexp,w
  4072  048E  1C03               	skipc
  4073  048F  2C91               	goto	u177_21
  4074  0490  2C92               	goto	u177_20
  4075  0491                     u177_21:
  4076  0491  2C69               	goto	i1l499
  4077  0492                     u177_20:
  4078  0492                     i1l497:
  4079  0492  1B64               	btfsc	___fladd@signs,6
  4080  0493  2C95               	goto	u178_21
  4081  0494  2C96               	goto	u178_20
  4082  0495                     u178_21:
  4083  0495  2CE1               	goto	i1l1590
  4084  0496                     u178_20:
  4085  0496                     i1l1566:
  4086  0496  0866               	movf	___fladd@bexp,w
  4087  0497  1D03               	btfss	3,2
  4088  0498  2C9A               	goto	u179_21
  4089  0499  2C9B               	goto	u179_20
  4090  049A                     u179_21:
  4091  049A  2CA4               	goto	i1l1572
  4092  049B                     u179_20:
  4093  049B                     i1l1568:
  4094  049B  3000               	movlw	0
  4095  049C  00D7               	movwf	?___fladd+3
  4096  049D  3000               	movlw	0
  4097  049E  00D6               	movwf	?___fladd+2
  4098  049F  3000               	movlw	0
  4099  04A0  00D5               	movwf	?___fladd+1
  4100  04A1  3000               	movlw	0
  4101  04A2  00D4               	movwf	?___fladd
  4102  04A3  2E0F               	goto	i1l506
  4103  04A4                     i1l1572:
  4104  04A4  0858               	movf	___fladd@a,w
  4105  04A5  07D4               	addwf	___fladd@b,f
  4106  04A6  0859               	movf	___fladd@a+1,w
  4107  04A7  1103               	clrz
  4108  04A8  1803               	skipnc
  4109  04A9  3E01               	addlw	1
  4110  04AA  1903               	skipnz
  4111  04AB  2CAD               	goto	u180_21
  4112  04AC  07D5               	addwf	___fladd@b+1,f
  4113  04AD                     u180_21:
  4114  04AD  085A               	movf	___fladd@a+2,w
  4115  04AE  1103               	clrz
  4116  04AF  1803               	skipnc
  4117  04B0  3E01               	addlw	1
  4118  04B1  1903               	skipnz
  4119  04B2  2CB4               	goto	u180_22
  4120  04B3  07D6               	addwf	___fladd@b+2,f
  4121  04B4                     u180_22:
  4122  04B4  085B               	movf	___fladd@a+3,w
  4123  04B5  1103               	clrz
  4124  04B6  1803               	skipnc
  4125  04B7  3E01               	addlw	1
  4126  04B8  1903               	skipnz
  4127  04B9  2CBB               	goto	u180_23
  4128  04BA  07D7               	addwf	___fladd@b+3,f
  4129  04BB                     u180_23:
  4130  04BB                     i1l1574:
  4131  04BB  1C57               	btfss	___fladd@b+3,0
  4132  04BC  2CBE               	goto	u181_21
  4133  04BD  2CBF               	goto	u181_20
  4134  04BE                     u181_21:
  4135  04BE  2D95               	goto	i1l1624
  4136  04BF                     u181_20:
  4137  04BF                     i1l1576:
  4138  04BF  1C67               	btfss	___fladd@grs,0
  4139  04C0  2CC2               	goto	u182_21
  4140  04C1  2CC3               	goto	u182_20
  4141  04C2                     u182_21:
  4142  04C2  2CCC               	goto	i1l1580
  4143  04C3                     u182_20:
  4144  04C3                     i1l1578:
  4145  04C3  0867               	movf	___fladd@grs,w
  4146  04C4  00DC               	movwf	??___fladd
  4147  04C5  1003               	clrc
  4148  04C6  0C5C               	rrf	??___fladd,w
  4149  04C7  3801               	iorlw	1
  4150  04C8  00DD               	movwf	??___fladd+1
  4151  04C9  085D               	movf	??___fladd+1,w
  4152  04CA  00E7               	movwf	___fladd@grs
  4153  04CB  2CCE               	goto	i1l1582
  4154  04CC                     i1l1580:
  4155  04CC  1003               	clrc
  4156  04CD  0CE7               	rrf	___fladd@grs,f
  4157  04CE                     i1l1582:
  4158  04CE  1C54               	btfss	___fladd@b,0
  4159  04CF  2CD1               	goto	u183_21
  4160  04D0  2CD2               	goto	u183_20
  4161  04D1                     u183_21:
  4162  04D1  2CD3               	goto	i1l1586
  4163  04D2                     u183_20:
  4164  04D2                     i1l1584:
  4165  04D2  17E7               	bsf	___fladd@grs,7
  4166  04D3                     i1l1586:
  4167  04D3  3001               	movlw	1
  4168  04D4  00DC               	movwf	??___fladd
  4169  04D5                     u184_25:
  4170  04D5  0D57               	rlf	___fladd@b+3,w
  4171  04D6  0CD7               	rrf	___fladd@b+3,f
  4172  04D7  0CD6               	rrf	___fladd@b+2,f
  4173  04D8  0CD5               	rrf	___fladd@b+1,f
  4174  04D9  0CD4               	rrf	___fladd@b,f
  4175  04DA  0BDC               	decfsz	??___fladd& (0+127),f
  4176  04DB  2CD5               	goto	u184_25
  4177  04DC                     i1l1588:
  4178  04DC  3001               	movlw	1
  4179  04DD  00DC               	movwf	??___fladd
  4180  04DE  085C               	movf	??___fladd,w
  4181  04DF  07E6               	addwf	___fladd@bexp,f
  4182  04E0  2D95               	goto	i1l1624
  4183  04E1                     i1l1590:
  4184  04E1  0857               	movf	___fladd@b+3,w
  4185  04E2  3A80               	xorlw	128
  4186  04E3  00FF               	movwf	btemp+1
  4187  04E4  085B               	movf	___fladd@a+3,w
  4188  04E5  3A80               	xorlw	128
  4189  04E6  027F               	subwf	btemp+1,w
  4190  04E7  1D03               	skipz
  4191  04E8  2CF3               	goto	u185_23
  4192  04E9  085A               	movf	___fladd@a+2,w
  4193  04EA  0256               	subwf	___fladd@b+2,w
  4194  04EB  1D03               	skipz
  4195  04EC  2CF3               	goto	u185_23
  4196  04ED  0859               	movf	___fladd@a+1,w
  4197  04EE  0255               	subwf	___fladd@b+1,w
  4198  04EF  1D03               	skipz
  4199  04F0  2CF3               	goto	u185_23
  4200  04F1  0858               	movf	___fladd@a,w
  4201  04F2  0254               	subwf	___fladd@b,w
  4202  04F3                     u185_23:
  4203  04F3  1803               	skipnc
  4204  04F4  2CF6               	goto	u185_21
  4205  04F5  2CF7               	goto	u185_20
  4206  04F6                     u185_21:
  4207  04F6  2D4F               	goto	i1l1600
  4208  04F7                     u185_20:
  4209  04F7                     i1l1592:
  4210  04F7  30FF               	movlw	255
  4211  04F8  00DC               	movwf	??___fladd
  4212  04F9  30FF               	movlw	255
  4213  04FA  00DD               	movwf	??___fladd+1
  4214  04FB  30FF               	movlw	255
  4215  04FC  00DE               	movwf	??___fladd+2
  4216  04FD  30FF               	movlw	255
  4217  04FE  00DF               	movwf	??___fladd+3
  4218  04FF  0858               	movf	___fladd@a,w
  4219  0500  00E0               	movwf	??___fladd+4
  4220  0501  0859               	movf	___fladd@a+1,w
  4221  0502  00E1               	movwf	??___fladd+5
  4222  0503  085A               	movf	___fladd@a+2,w
  4223  0504  00E2               	movwf	??___fladd+6
  4224  0505  085B               	movf	___fladd@a+3,w
  4225  0506  00E3               	movwf	??___fladd+7
  4226  0507  0854               	movf	___fladd@b,w
  4227  0508  02E0               	subwf	??___fladd+4,f
  4228  0509  0855               	movf	___fladd@b+1,w
  4229  050A  1C03               	skipc
  4230  050B  0F55               	incfsz	___fladd@b+1,w
  4231  050C  2D0E               	goto	u186_21
  4232  050D  2D0F               	goto	u186_22
  4233  050E                     u186_21:
  4234  050E  02E1               	subwf	??___fladd+5,f
  4235  050F                     u186_22:
  4236  050F  0856               	movf	___fladd@b+2,w
  4237  0510  1C03               	skipc
  4238  0511  0F56               	incfsz	___fladd@b+2,w
  4239  0512  2D14               	goto	u186_23
  4240  0513  2D15               	goto	u186_24
  4241  0514                     u186_23:
  4242  0514  02E2               	subwf	??___fladd+6,f
  4243  0515                     u186_24:
  4244  0515  0857               	movf	___fladd@b+3,w
  4245  0516  1C03               	skipc
  4246  0517  0F57               	incfsz	___fladd@b+3,w
  4247  0518  2D1A               	goto	u186_25
  4248  0519  2D1B               	goto	u186_26
  4249  051A                     u186_25:
  4250  051A  02E3               	subwf	??___fladd+7,f
  4251  051B                     u186_26:
  4252  051B  0860               	movf	??___fladd+4,w
  4253  051C  07DC               	addwf	??___fladd,f
  4254  051D  0861               	movf	??___fladd+5,w
  4255  051E  1803               	skipnc
  4256  051F  0F61               	incfsz	??___fladd+5,w
  4257  0520  2D22               	goto	u187_20
  4258  0521  2D23               	goto	u187_21
  4259  0522                     u187_20:
  4260  0522  07DD               	addwf	??___fladd+1,f
  4261  0523                     u187_21:
  4262  0523  0862               	movf	??___fladd+6,w
  4263  0524  1803               	skipnc
  4264  0525  0F62               	incfsz	??___fladd+6,w
  4265  0526  2D28               	goto	u187_22
  4266  0527  2D29               	goto	u187_23
  4267  0528                     u187_22:
  4268  0528  07DE               	addwf	??___fladd+2,f
  4269  0529                     u187_23:
  4270  0529  0863               	movf	??___fladd+7,w
  4271  052A  1803               	skipnc
  4272  052B  0A63               	incf	??___fladd+7,w
  4273  052C  07DF               	addwf	??___fladd+3,f
  4274  052D  085F               	movf	??___fladd+3,w
  4275  052E  00D7               	movwf	___fladd@b+3
  4276  052F  085E               	movf	??___fladd+2,w
  4277  0530  00D6               	movwf	___fladd@b+2
  4278  0531  085D               	movf	??___fladd+1,w
  4279  0532  00D5               	movwf	___fladd@b+1
  4280  0533  085C               	movf	??___fladd,w
  4281  0534  00D4               	movwf	___fladd@b
  4282  0535                     i1l1594:
  4283  0535  3080               	movlw	128
  4284  0536  00DC               	movwf	??___fladd
  4285  0537  085C               	movf	??___fladd,w
  4286  0538  06E4               	xorwf	___fladd@signs,f
  4287  0539  09E7               	comf	___fladd@grs,f
  4288  053A  0AE7               	incf	___fladd@grs,f
  4289  053B                     i1l1596:
  4290  053B  0867               	movf	___fladd@grs,w
  4291  053C  1D03               	btfss	3,2
  4292  053D  2D3F               	goto	u188_21
  4293  053E  2D40               	goto	u188_20
  4294  053F                     u188_21:
  4295  053F  2D5D               	goto	i1l514
  4296  0540                     u188_20:
  4297  0540                     i1l1598:
  4298  0540  3001               	movlw	1
  4299  0541  07D4               	addwf	___fladd@b,f
  4300  0542  3000               	movlw	0
  4301  0543  1803               	skipnc
  4302  0544  3001               	movlw	1
  4303  0545  07D5               	addwf	___fladd@b+1,f
  4304  0546  3000               	movlw	0
  4305  0547  1803               	skipnc
  4306  0548  3001               	movlw	1
  4307  0549  07D6               	addwf	___fladd@b+2,f
  4308  054A  3000               	movlw	0
  4309  054B  1803               	skipnc
  4310  054C  3001               	movlw	1
  4311  054D  07D7               	addwf	___fladd@b+3,f
  4312  054E  2D5D               	goto	i1l514
  4313  054F                     i1l1600:
  4314  054F  0858               	movf	___fladd@a,w
  4315  0550  02D4               	subwf	___fladd@b,f
  4316  0551  0859               	movf	___fladd@a+1,w
  4317  0552  1C03               	skipc
  4318  0553  0F59               	incfsz	___fladd@a+1,w
  4319  0554  02D5               	subwf	___fladd@b+1,f
  4320  0555  085A               	movf	___fladd@a+2,w
  4321  0556  1C03               	skipc
  4322  0557  0F5A               	incfsz	___fladd@a+2,w
  4323  0558  02D6               	subwf	___fladd@b+2,f
  4324  0559  085B               	movf	___fladd@a+3,w
  4325  055A  1C03               	skipc
  4326  055B  0F5B               	incfsz	___fladd@a+3,w
  4327  055C  02D7               	subwf	___fladd@b+3,f
  4328  055D                     i1l514:
  4329  055D  0857               	movf	___fladd@b+3,w
  4330  055E  0456               	iorwf	___fladd@b+2,w
  4331  055F  0455               	iorwf	___fladd@b+1,w
  4332  0560  0454               	iorwf	___fladd@b,w
  4333  0561  1D03               	skipz
  4334  0562  2D64               	goto	u189_21
  4335  0563  2D65               	goto	u189_20
  4336  0564                     u189_21:
  4337  0564  2D91               	goto	i1l1622
  4338  0565                     u189_20:
  4339  0565                     i1l1602:
  4340  0565  0867               	movf	___fladd@grs,w
  4341  0566  1D03               	btfss	3,2
  4342  0567  2D69               	goto	u190_21
  4343  0568  2D6A               	goto	u190_20
  4344  0569                     u190_21:
  4345  0569  2D91               	goto	i1l1622
  4346  056A                     u190_20:
  4347  056A                     i1l1604:
  4348  056A  3000               	movlw	0
  4349  056B  00D7               	movwf	?___fladd+3
  4350  056C  3000               	movlw	0
  4351  056D  00D6               	movwf	?___fladd+2
  4352  056E  3000               	movlw	0
  4353  056F  00D5               	movwf	?___fladd+1
  4354  0570  3000               	movlw	0
  4355  0571  00D4               	movwf	?___fladd
  4356  0572  2E0F               	goto	i1l506
  4357  0573                     i1l1608:
  4358  0573  3001               	movlw	1
  4359  0574  00DC               	movwf	??___fladd
  4360  0575                     u191_25:
  4361  0575  1003               	clrc
  4362  0576  0DD4               	rlf	___fladd@b,f
  4363  0577  0DD5               	rlf	___fladd@b+1,f
  4364  0578  0DD6               	rlf	___fladd@b+2,f
  4365  0579  0DD7               	rlf	___fladd@b+3,f
  4366  057A  0BDC               	decfsz	??___fladd,f
  4367  057B  2D75               	goto	u191_25
  4368  057C                     i1l1610:
  4369  057C  1FE7               	btfss	___fladd@grs,7
  4370  057D  2D7F               	goto	u192_21
  4371  057E  2D80               	goto	u192_20
  4372  057F                     u192_21:
  4373  057F  2D81               	goto	i1l518
  4374  0580                     u192_20:
  4375  0580                     i1l1612:
  4376  0580  1454               	bsf	___fladd@b,0
  4377  0581                     i1l518:
  4378  0581  1C67               	btfss	___fladd@grs,0
  4379  0582  2D84               	goto	u193_21
  4380  0583  2D85               	goto	u193_20
  4381  0584                     u193_21:
  4382  0584  2D88               	goto	i1l1616
  4383  0585                     u193_20:
  4384  0585                     i1l1614:
  4385  0585  1403               	setc
  4386  0586  0DE7               	rlf	___fladd@grs,f
  4387  0587  2D8A               	goto	i1l1618
  4388  0588                     i1l1616:
  4389  0588  1003               	clrc
  4390  0589  0DE7               	rlf	___fladd@grs,f
  4391  058A                     i1l1618:
  4392  058A  0866               	movf	___fladd@bexp,w
  4393  058B  1903               	btfsc	3,2
  4394  058C  2D8E               	goto	u194_21
  4395  058D  2D8F               	goto	u194_20
  4396  058E                     u194_21:
  4397  058E  2D91               	goto	i1l1622
  4398  058F                     u194_20:
  4399  058F                     i1l1620:
  4400  058F  3001               	movlw	1
  4401  0590  02E6               	subwf	___fladd@bexp,f
  4402  0591                     i1l1622:
  4403  0591  1FD6               	btfss	___fladd@b+2,7
  4404  0592  2D94               	goto	u195_21
  4405  0593  2D95               	goto	u195_20
  4406  0594                     u195_21:
  4407  0594  2D73               	goto	i1l1608
  4408  0595                     u195_20:
  4409  0595                     i1l1624:
  4410  0595  01E5               	clrf	___fladd@aexp
  4411  0596                     i1l1626:
  4412  0596  1FE7               	btfss	___fladd@grs,7
  4413  0597  2D99               	goto	u196_21
  4414  0598  2D9A               	goto	u196_20
  4415  0599                     u196_21:
  4416  0599  2DA8               	goto	i1l1634
  4417  059A                     u196_20:
  4418  059A                     i1l1628:
  4419  059A  0867               	movf	___fladd@grs,w
  4420  059B  397F               	andlw	127
  4421  059C  1903               	btfsc	3,2
  4422  059D  2D9F               	goto	u197_21
  4423  059E  2DA0               	goto	u197_20
  4424  059F                     u197_21:
  4425  059F  2DA3               	goto	i1l524
  4426  05A0                     u197_20:
  4427  05A0                     i1l1630:
  4428  05A0  01E5               	clrf	___fladd@aexp
  4429  05A1  0AE5               	incf	___fladd@aexp,f
  4430  05A2  2DA8               	goto	i1l1634
  4431  05A3                     i1l524:
  4432  05A3  1C54               	btfss	___fladd@b,0
  4433  05A4  2DA6               	goto	u198_21
  4434  05A5  2DA7               	goto	u198_20
  4435  05A6                     u198_21:
  4436  05A6  2DA8               	goto	i1l1634
  4437  05A7                     u198_20:
  4438  05A7  2DA0               	goto	i1l1630
  4439  05A8                     i1l1634:
  4440  05A8  0865               	movf	___fladd@aexp,w
  4441  05A9  1903               	btfsc	3,2
  4442  05AA  2DAC               	goto	u199_21
  4443  05AB  2DAD               	goto	u199_20
  4444  05AC                     u199_21:
  4445  05AC  2DE1               	goto	i1l527
  4446  05AD                     u199_20:
  4447  05AD                     i1l1636:
  4448  05AD  3001               	movlw	1
  4449  05AE  07D4               	addwf	___fladd@b,f
  4450  05AF  3000               	movlw	0
  4451  05B0  1803               	skipnc
  4452  05B1  3001               	movlw	1
  4453  05B2  07D5               	addwf	___fladd@b+1,f
  4454  05B3  3000               	movlw	0
  4455  05B4  1803               	skipnc
  4456  05B5  3001               	movlw	1
  4457  05B6  07D6               	addwf	___fladd@b+2,f
  4458  05B7  3000               	movlw	0
  4459  05B8  1803               	skipnc
  4460  05B9  3001               	movlw	1
  4461  05BA  07D7               	addwf	___fladd@b+3,f
  4462  05BB                     i1l1638:
  4463  05BB  1C57               	btfss	___fladd@b+3,0
  4464  05BC  2DBE               	goto	u200_21
  4465  05BD  2DBF               	goto	u200_20
  4466  05BE                     u200_21:
  4467  05BE  2DE1               	goto	i1l527
  4468  05BF                     u200_20:
  4469  05BF                     i1l1640:
  4470  05BF  0854               	movf	___fladd@b,w
  4471  05C0  00DC               	movwf	??___fladd
  4472  05C1  0855               	movf	___fladd@b+1,w
  4473  05C2  00DD               	movwf	??___fladd+1
  4474  05C3  0856               	movf	___fladd@b+2,w
  4475  05C4  00DE               	movwf	??___fladd+2
  4476  05C5  0857               	movf	___fladd@b+3,w
  4477  05C6  00DF               	movwf	??___fladd+3
  4478  05C7  3001               	movlw	1
  4479  05C8  00E0               	movwf	??___fladd+4
  4480  05C9                     u201_25:
  4481  05C9  0D5F               	rlf	??___fladd+3,w
  4482  05CA  0CDF               	rrf	??___fladd+3,f
  4483  05CB  0CDE               	rrf	??___fladd+2,f
  4484  05CC  0CDD               	rrf	??___fladd+1,f
  4485  05CD  0CDC               	rrf	??___fladd,f
  4486  05CE                     u201_20:
  4487  05CE  0BE0               	decfsz	??___fladd+4,f
  4488  05CF  2DC9               	goto	u201_25
  4489  05D0  085F               	movf	??___fladd+3,w
  4490  05D1  00D7               	movwf	___fladd@b+3
  4491  05D2  085E               	movf	??___fladd+2,w
  4492  05D3  00D6               	movwf	___fladd@b+2
  4493  05D4  085D               	movf	??___fladd+1,w
  4494  05D5  00D5               	movwf	___fladd@b+1
  4495  05D6  085C               	movf	??___fladd,w
  4496  05D7  00D4               	movwf	___fladd@b
  4497  05D8  0A66               	incf	___fladd@bexp,w
  4498  05D9  1903               	btfsc	3,2
  4499  05DA  2DDC               	goto	u202_21
  4500  05DB  2DDD               	goto	u202_20
  4501  05DC                     u202_21:
  4502  05DC  2DE1               	goto	i1l527
  4503  05DD                     u202_20:
  4504  05DD                     i1l1642:
  4505  05DD  3001               	movlw	1
  4506  05DE  00DC               	movwf	??___fladd
  4507  05DF  085C               	movf	??___fladd,w
  4508  05E0  07E6               	addwf	___fladd@bexp,f
  4509  05E1                     i1l527:
  4510  05E1  0A66               	incf	___fladd@bexp,w
  4511  05E2  1903               	btfsc	3,2
  4512  05E3  2DE5               	goto	u203_21
  4513  05E4  2DE6               	goto	u203_20
  4514  05E5                     u203_21:
  4515  05E5  2DEB               	goto	i1l1646
  4516  05E6                     u203_20:
  4517  05E6                     i1l1644:
  4518  05E6  0866               	movf	___fladd@bexp,w
  4519  05E7  1D03               	btfss	3,2
  4520  05E8  2DEA               	goto	u204_21
  4521  05E9  2DEB               	goto	u204_20
  4522  05EA                     u204_21:
  4523  05EA  2DF9               	goto	i1l1652
  4524  05EB                     u204_20:
  4525  05EB                     i1l1646:
  4526  05EB  3000               	movlw	0
  4527  05EC  00D7               	movwf	___fladd@b+3
  4528  05ED  3000               	movlw	0
  4529  05EE  00D6               	movwf	___fladd@b+2
  4530  05EF  3000               	movlw	0
  4531  05F0  00D5               	movwf	___fladd@b+1
  4532  05F1  3000               	movlw	0
  4533  05F2  00D4               	movwf	___fladd@b
  4534  05F3                     i1l1648:
  4535  05F3  0866               	movf	___fladd@bexp,w
  4536  05F4  1D03               	btfss	3,2
  4537  05F5  2DF7               	goto	u205_21
  4538  05F6  2DF8               	goto	u205_20
  4539  05F7                     u205_21:
  4540  05F7  2DF9               	goto	i1l1652
  4541  05F8                     u205_20:
  4542  05F8                     i1l1650:
  4543  05F8  01E4               	clrf	___fladd@signs
  4544  05F9                     i1l1652:
  4545  05F9  1C66               	btfss	___fladd@bexp,0
  4546  05FA  2DFC               	goto	u206_21
  4547  05FB  2DFD               	goto	u206_20
  4548  05FC                     u206_21:
  4549  05FC  2DFF               	goto	i1l1656
  4550  05FD                     u206_20:
  4551  05FD                     i1l1654:
  4552  05FD  17D6               	bsf	___fladd@b+2,7
  4553  05FE  2E03               	goto	i1l535
  4554  05FF                     i1l1656:
  4555  05FF  307F               	movlw	127
  4556  0600  00DC               	movwf	??___fladd
  4557  0601  085C               	movf	??___fladd,w
  4558  0602  05D6               	andwf	___fladd@b+2,f
  4559  0603                     i1l535:
  4560  0603  0866               	movf	___fladd@bexp,w
  4561  0604  00DC               	movwf	??___fladd
  4562  0605  1003               	clrc
  4563  0606  0C5C               	rrf	??___fladd,w
  4564  0607  00DD               	movwf	??___fladd+1
  4565  0608  085D               	movf	??___fladd+1,w
  4566  0609  00D7               	movwf	___fladd@b+3
  4567  060A                     i1l1658:
  4568  060A  1FE4               	btfss	___fladd@signs,7
  4569  060B  2E0D               	goto	u207_21
  4570  060C  2E0E               	goto	u207_20
  4571  060D                     u207_21:
  4572  060D  2E0F               	goto	i1l536
  4573  060E                     u207_20:
  4574  060E                     i1l1660:
  4575  060E  17D7               	bsf	___fladd@b+3,7
  4576  060F                     i1l536:
  4577  060F                     i1l506:
  4578  060F  0008               	return
  4579  0610                     __end_of___fladd:
  4580  007E                     btemp	set	126	;btemp
  4581  007E                     wtemp0	set	126
  4582                           
  4583                           	psect	idloc
  4584                           
  4585                           ;Config register IDLOC0 @ 0x2000
  4586                           ;	unspecified, using default values
  4587  2000                     	org	8192
  4588  2000  3FFF               	dw	16383
  4589                           
  4590                           ;Config register IDLOC1 @ 0x2001
  4591                           ;	unspecified, using default values
  4592  2001                     	org	8193
  4593  2001  3FFF               	dw	16383
  4594                           
  4595                           ;Config register IDLOC2 @ 0x2002
  4596                           ;	unspecified, using default values
  4597  2002                     	org	8194
  4598  2002  3FFF               	dw	16383
  4599                           
  4600                           ;Config register IDLOC3 @ 0x2003
  4601                           ;	unspecified, using default values
  4602  2003                     	org	8195
  4603  2003  3FFF               	dw	16383
  4604                           
  4605                           	psect	config
  4606                           
  4607                           ;Config register CONFIG1 @ 0x2007
  4608                           ;	Oscillator Selection bits
  4609                           ;	FOSC = INTRC_NOCLKOUT, INTOSCIO oscillator: I/O function on RA6/OSC2/CLKOUT pin, I/O f
      +                          unction on RA7/OSC1/CLKIN
  4610                           ;	Watchdog Timer Enable bit
  4611                           ;	WDTE = OFF, WDT disabled and can be enabled by SWDTEN bit of the WDTCON register
  4612                           ;	Power-up Timer Enable bit
  4613                           ;	PWRTE = OFF, PWRT disabled
  4614                           ;	RE3/MCLR pin function select bit
  4615                           ;	MCLRE = OFF, RE3/MCLR pin function is digital input, MCLR internally tied to VDD
  4616                           ;	Code Protection bit
  4617                           ;	CP = OFF, Program memory code protection is disabled
  4618                           ;	Data Code Protection bit
  4619                           ;	CPD = OFF, Data memory code protection is disabled
  4620                           ;	Brown Out Reset Selection bits
  4621                           ;	BOREN = OFF, BOR disabled
  4622                           ;	Internal External Switchover bit
  4623                           ;	IESO = OFF, Internal/External Switchover mode is disabled
  4624                           ;	Fail-Safe Clock Monitor Enabled bit
  4625                           ;	FCMEN = OFF, Fail-Safe Clock Monitor is disabled
  4626                           ;	Low Voltage Programming Enable bit
  4627                           ;	LVP = OFF, RB3 pin has digital I/O, HV on MCLR must be used for programming
  4628                           ;	In-Circuit Debugger Mode bit
  4629                           ;	DEBUG = 0x1, unprogrammed default
  4630  2007                     	org	8199
  4631  2007  20D4               	dw	8404
  4632                           
  4633                           ;Config register CONFIG2 @ 0x2008
  4634                           ;	Brown-out Reset Selection bit
  4635                           ;	BOR4V = BOR40V, Brown-out Reset set to 4.0V
  4636                           ;	Flash Program Memory Self Write Enable bits
  4637                           ;	WRT = OFF, Write protection off
  4638  2008                     	org	8200
  4639  2008  3FFF               	dw	16383

Data Sizes:
    Strings     0
    Constant    0
    Data        1
    BSS         6
    Persistent  0
    Stack       0

Auto Spaces:
    Space          Size  Autos    Used
    COMMON           14     14      14
    BANK0            80     79      80
    BANK1            80     17      23
    BANK3            96      0       0
    BANK2            96      0       0

Pointer List with Targets:

    None.

Critical Paths under _main in COMMON

    None.

Critical Paths under _isr in COMMON

    _map->___xxtofl
    ___fltol->___xxtofl
    ___flmul->___xxtofl
    ___fldiv->___xxtofl
    ___fladd->___xxtofl

Critical Paths under _main in BANK0

    None.

Critical Paths under _isr in BANK0

    _isr->_map
    _map->___fltol
    ___fltol->___fladd
    ___flmul->___fldiv
    ___fladd->___flmul

Critical Paths under _main in BANK1

    _main->_setup

Critical Paths under _isr in BANK1

    _isr->_map
    _map->___fltol

Critical Paths under _main in BANK3

    None.

Critical Paths under _isr in BANK3

    None.

Critical Paths under _main in BANK2

    None.

Critical Paths under _isr in BANK2

    None.

Call Graph Tables:

 ---------------------------------------------------------------------------------
 (Depth) Function   	        Calls       Base Space   Used Autos Params    Refs
 ---------------------------------------------------------------------------------
 (0) _main                                                 0     0      0       0
                              _setup
 ---------------------------------------------------------------------------------
 (1) _setup                                                1     1      0       0
                                             16 BANK1      1     1      0
 ---------------------------------------------------------------------------------
 Estimated maximum stack depth 1
 ---------------------------------------------------------------------------------
 (Depth) Function   	        Calls       Base Space   Used Autos Params    Refs
 ---------------------------------------------------------------------------------
 (2) _isr                                                  5     5      0    7341
                                             11 BANK1      5     5      0
                                _map
 ---------------------------------------------------------------------------------
 (3) _map                                                  7     1      6    7341
                                             78 BANK0      1     1      0
                                              5 BANK1      6     0      6
                            ___fladd
                            ___fldiv
                            ___flmul
                            ___fltol
                           ___xxtofl
 ---------------------------------------------------------------------------------
 (4) ___xxtofl                                            14    10      4     626
                                              0 COMMON    14    10      4
 ---------------------------------------------------------------------------------
 (4) ___fltol                                             11     7      4     305
                                             72 BANK0      6     2      4
                                              0 BANK1      5     5      0
                            ___fladd (ARG)
                            ___fldiv (ARG)
                            ___flmul (ARG)
                           ___xxtofl (ARG)
 ---------------------------------------------------------------------------------
 (4) ___flmul                                             26    18      8    2417
                                             26 BANK0     26    18      8
                          __Umul8_16
                            ___fldiv (ARG)
                           ___xxtofl (ARG)
 ---------------------------------------------------------------------------------
 (5) __Umul8_16                                            9     7      2     799
                                              0 COMMON     9     7      2
 ---------------------------------------------------------------------------------
 (4) ___fldiv                                             26    18      8    1273
                                              0 BANK0     26    18      8
                           ___xxtofl (ARG)
 ---------------------------------------------------------------------------------
 (4) ___fladd                                             20    12      8    2262
                                             52 BANK0     20    12      8
                            ___fldiv (ARG)
                            ___flmul (ARG)
                           ___xxtofl (ARG)
 ---------------------------------------------------------------------------------
 Estimated maximum stack depth 5
 ---------------------------------------------------------------------------------

 Call Graph Graphs:

 _main (ROOT)
   _setup

 _isr (ROOT)
   _map
     ___fladd
       ___fldiv (ARG)
         ___xxtofl (ARG)
       ___flmul (ARG)
         __Umul8_16
         ___fldiv (ARG)
         ___xxtofl (ARG)
       ___xxtofl (ARG)
     ___fldiv
     ___flmul
     ___fltol
       ___fladd (ARG)
       ___fldiv (ARG)
       ___flmul (ARG)
       ___xxtofl (ARG)
     ___xxtofl

 Address spaces:
Name               Size   Autos  Total    Cost      Usage
BANK3               60      0       0       9        0.0%
BITBANK3            60      0       0       8        0.0%
SFR3                 0      0       0       4        0.0%
BITSFR3              0      0       0       4        0.0%
BANK2               60      0       0      11        0.0%
BITBANK2            60      0       0      10        0.0%
SFR2                 0      0       0       5        0.0%
BITSFR2              0      0       0       5        0.0%
BANK1               50     11      17       7       28.7%
BITBANK1            50      0       0       6        0.0%
SFR1                 0      0       0       2        0.0%
BITSFR1              0      0       0       2        0.0%
BANK0               50     4F      50       5      100.0%
BITBANK0            50      0       0       4        0.0%
SFR0                 0      0       0       1        0.0%
BITSFR0              0      0       0       1        0.0%
COMMON               E      E       E       1      100.0%
BITCOMMON            E      0       0       0        0.0%
CODE                 0      0       0       0        0.0%
DATA                 0      0      75      12        0.0%
ABS                  0      0      75       3        0.0%
NULL                 0      0       0       0        0.0%
STACK                0      0       0       2        0.0%
EEDATA             100      0       0       0        0.0%


Microchip Technology PIC Macro Assembler V2.35 build 20211206165544 
Symbol Table                                                                                   Sat May 14 21:53:10 2022

           ___fldiv@aexp 0039             ___fldiv@bexp 0038             ___fldiv@sign 0031  
            _SSPSTATbits 0094      __Umul8_16@word_mpld 0076                      l100 07F2  
                    l101 07F2                      l110 0DEB                      l111 0DF7  
                    l108 0DE7                      _PR2 0092                      _map 0E94  
                    _isr 0CDC             ___flmul@aexp 004C             ___flmul@bexp 004D  
           ___flmul@sign 0047             ___flmul@temp 0052             ___flmul@prod 004E  
           ___fltol@exp1 006D                     l2000 0D75                     l2010 0D83  
                   l2002 0D77                     l2020 0D96                     l2012 0D86  
                   l2004 0D7A                     l2030 0DA2                     l2022 0D99  
                   l2014 0D89                     l2006 0D7D                     l2040 0DA9  
                   l2032 0DA5                     l2024 0D9C                     l2016 0D8F  
                   l2008 0D80                     l2050 0DAE                     l2042 0DAA  
                   l2034 0DA6                     l2026 0DA0                     l2018 0D93  
                   l2052 0DAF                     l2044 0DAB                     l2036 0DA7  
                   l2028 0DA1                     l2060 0DB8                     l2070 0DC5  
                   l2062 0DBC                     l2054 0DB2                     l2046 0DAC  
                   l2038 0DA8                     l2080 0DD5                     l2072 0DC8  
                   l2064 0DBF                     l2056 0DB5                     l2048 0DAD  
                   l2128 07ED                     l2090 0DE5                     l2082 0DD8  
                   l2074 0DC9                     l2066 0DC3                     l2058 0DB6  
                   l2084 0DDA                     l2076 0DD0                     l2068 0DC4  
                   l2086 0DDE                     l2078 0DD3                     l2088 0DE4  
                   ?_map 00A5                     l1992 0D69                     l1994 0D6D  
                   l1996 0D6E                     l1998 0D74                     ?_isr 0070  
                   _CCPR 00B1                     u2880 0D8F                     u2881 0D8E  
                   u2890 0DEB                     u2891 0DEA                     u2977 0DCD  
                   i1l93 0D5E                     i1l95 0D5E                     _cont 006F  
                   _main 07ED                     map@x 006E                     btemp 007E  
                   start 0010          ___fldiv@new_exp 0032                    ??_map 007E  
                  ??_isr 00AB            ___fltol@sign1 006C          __end_of___fladd 0610  
                  ?_main 0070          __end_of___fldiv 07ED          __end_of___flmul 0388  
        __end_of___fltol 0E94                    _ANSEL 0188                    _T2CON 0012  
                  i1l114 0F45                    i1l601 037B                    i1l514 055D  
                  i1l506 060F                    i1l610 0CDB                    i1l524 05A3  
                  i1l518 0581                    i1l535 0603                    i1l527 05E1  
                  i1l551 07EC                    i1l536 060F                    i1l608 0CC9  
                  i1l393 0E7E                    i1l633 0F68                    i1l386 0E93  
                  i1l571 07D0                    i1l635 0FFF                    i1l396 0E93  
                  i1l493 03EB                    i1l573 07E0                    i1l565 075E  
                  i1l549 066C                    i1l646 0FC9                    i1l647 0FD5  
                  i1l639 0FAD                    i1l497 0492                    i1l499 0469  
                  i1l595 02F3                    i1l589 0387                    _PORTA 0005  
                  _PORTB 0006                    _PORTC 0007                    _PORTD 0008  
                  _PORTE 0009                    _TRISA 0085                    _TRISB 0086  
                  _TRISC 0087                    _TRISD 0088                    _TRISE 0089  
                  map@x0 00A5                    map@x1 00A6                    map@y0 00A7  
                  map@y1 00A9                    _setup 0D69                    pclath 000A  
                  status 0003                    wtemp0 007E          __initialization 0013  
           __end_of_main 07F6                   ??_main 00B1                   _CCPR1L 0015  
                 ?_setup 0070                   _ANSELH 0189                   i1l2100 0CF3  
                 i1l2110 0D0D                   i1l2102 0CFD                   i1l2120 0D24  
                 i1l2112 0D0E                   i1l2104 0CFF                   i1l2122 0D3E  
                 i1l2114 0D13                   i1l2106 0D03                   i1l1500 03CE  
                 i1l1420 0CB8                   i1l2124 0D4C                   i1l2116 0D17  
                 i1l2108 0D07                   i1l1502 03D3                   i1l1510 03E3  
                 i1l1422 0CBF                   i1l2118 0D19                   u200_20 05BF  
                 i1l1600 054F                   i1l1520 0401                   i1l1512 03F1  
                 i1l1504 03D8                   i1l1424 0CC3                   i1l1440 0E37  
                 i1l1432 0DF8                   u200_21 05BE                   i1l1610 057C  
                 i1l1602 0565                   i1l1530 0415                   i1l1522 0405  
                 i1l1514 03F5                   i1l1506 03E0                   i1l1426 0CD2  
                 i1l1418 0CB6                   i1l1442 0E38                   i1l1434 0E09  
                 i1l1620 058F                   i1l1612 0580                   i1l1604 056A  
                 i1l1540 0429                   i1l1532 0419                   i1l1524 0409  
                 i1l1516 03F9                   i1l1508 03E1                   i1l1700 0664  
                 i1l1428 0CD7                   i1l1444 0E40                   i1l2092 0CDC  
                 i1l1630 05A0                   i1l1614 0585                   i1l1622 0591  
                 i1l1550 044D                   i1l1542 042D                   i1l1534 041D  
                 i1l1526 040D                   i1l1518 03FD                   i1l1470 038F  
                 i1l1702 0674                   i1l1710 068D                   i1l1462 0E6B  
                 i1l1454 0E4E                   i1l1446 0E42                   i1l1438 0E12  
                 i1l2094 0CE2                   u201_20 05CE                   i1l1640 05BF  
                 i1l1616 0588                   i1l1608 0573                   i1l1624 0595  
                 i1l1560 047D                   i1l1552 046D                   i1l1544 0431  
                 i1l1536 0421                   i1l1528 0411                   i1l1480 03A4  
                 i1l1472 0395                   i1l1720 06B5                   i1l1712 0692  
                 i1l1704 0680                   i1l1464 0E83                   i1l1448 0E46  
                 i1l1456 0E64                   i1l2096 0CE6                   i1l1650 05F8  
                 i1l1642 05DD                   i1l1634 05A8                   i1l1626 0596  
                 i1l1618 058A                   i1l1562 0486                   i1l1554 0476  
                 i1l1538 0425                   i1l1546 0435                   i1l1490 03BC  
                 i1l1482 03AC                   i1l1474 0399                   i1l1730 06DE  
                 i1l1722 06BD                   i1l1706 0684                   i1l1810 0038  
                 i1l1466 0E88                   i1l2098 0CEC                   i1l1660 060E  
                 i1l1652 05F9                   i1l1644 05E6                   i1l1636 05AD  
                 i1l1628 059A                   i1l1580 04CC                   i1l1572 04A4  
                 i1l1556 0478                   i1l1564 048A                   i1l1548 0436  
                 i1l1492 03C2                   i1l1484 03AD                   i1l1476 039A  
                 i1l1468 0388                   i1l1740 06FF                   i1l1732 06E2  
                 i1l1724 06C5                   i1l1716 069B                   i1l1900 02D3  
                 i1l1820 004D                   i1l1812 0039                   i1l1804 0027  
                 u201_25 05C9                   i1l1654 05FD                   i1l1646 05EB  
                 i1l1638 05BB                   i1l1582 04CE                   i1l1574 04BB  
                 i1l1566 0496                   i1l1590 04E1                   i1l1558 047C  
                 i1l1494 03C3                   i1l1478 039F                   i1l1486 03AF  
                 i1l1750 0721                   i1l1742 070D                   i1l1734 06E3  
                 i1l1726 06C7                   i1l1718 06AD                   i1l1670 0622  
                 i1l1662 0610                   i1l1902 02D7                   i1l1830 0065  
                 i1l1822 0055                   i1l1814 003E                   i1l1806 002E  
                 i1l1656 05FF                   i1l1648 05F3                   u202_20 05DD  
                 i1l1592 04F7                   i1l1584 04D2                   i1l1576 04BF  
                 i1l1568 049B                   i1l1496 03C9                   i1l1488 03B7  
                 i1l1752 072A                   i1l1760 073E                   i1l1728 06CC  
                 i1l1736 06EC                   i1l1744 0711                   u210_20 062C  
                 i1l1672 0627                   i1l1680 0637                   i1l1664 0617  
                 i1l1920 0328                   i1l1912 02F8                   i1l1904 02D8  
                 i1l1840 0081                   i1l1832 006A                   i1l1824 005A  
                 i1l1816 0043                   i1l1808 0034                   u202_21 05DC  
                 u210_21 062B                   i1l1658 060A                   i1l1594 0535  
                 i1l1586 04D3                   i1l1578 04C3                   i1l1498 03CD  
                 i1l1762 0742                   i1l1754 072E                   i1l1746 0717  
                 i1l1738 06FE                   i1l1690 064F                   i1l1682 063F  
                 i1l1674 062C                   i1l1666 061D                   i1l1930 035F  
                 i1l1914 02FD                   i1l1922 032E                   i1l1906 02DC  
                 i1l1850 00A4                   i1l1842 0086                   i1l1834 006F  
                 i1l1826 0060                   i1l1818 004B                   i1l1596 053B  
                 i1l1588 04DC                   i1l1780 0793                   i1l1772 0763  
                 i1l1764 0743                   i1l1756 072F                   i1l1748 071F  
                 i1l1692 0654                   i1l1684 0644                   i1l1676 0634  
                 i1l1668 0621                   i1l1940 037F                   i1l1932 0361  
                 i1l1924 033B                   i1l1916 030B                   i1l1908 02F0  
                 i1l1860 0132                   i1l1852 00B1                   i1l1844 008B  
                 i1l1836 0077                   i1l1828 0064                   i1l1598 0540  
                 i1l1790 07C7                   i1l1774 0768                   i1l1782 0799  
                 i1l1766 0747                   i1l1758 0738                   i1l1694 0659  
                 i1l1686 064A                   i1l1678 0635                   i1l1934 036F  
                 i1l1926 0346                   i1l1918 030F                   i1l1870 0194  
                 i1l1862 014E                   i1l1854 00CE                   i1l1838 0079  
                 i1l1950 0F60                   u203_20 05E6                   i1l1792 07CF  
                 i1l1784 07A6                   i1l1776 0776                   i1l1768 075B  
                 i1l1696 0661                   i1l1688 064E                   u211_20 064E  
                 i1l1936 0373                   i1l1928 0355                   i1l1880 0224  
                 i1l1872 01B1                   i1l1864 0157                   i1l1856 00EA  
                 i1l1848 0094                   i1l1960 0F8B                   i1l1952 0F70  
                 i1l1944 0F47                   u203_21 05E5                   u211_21 064D  
                 i1l1794 07D6                   i1l1786 07B4                   i1l1778 077A  
                 i1l1698 0662                   i1l1938 0374                   i1l1890 02B6  
                 i1l1882 0251                   i1l1874 01CA                   i1l1866 0167  
                 i1l1858 0116                   i1l1970 0FBF                   i1l1962 0F92  
                 i1l1946 0F4C                   i1l1796 07DA                   i1l1788 07C3  
                 i1l1892 02BF                   i1l1884 0277                   i1l1876 01E7  
                 i1l1868 0184                   i1l1980 0FF2                   i1l1972 0FC3  
                 i1l1964 0F96                   i1l1956 0F79                   i1l1948 0F50  
                 i1l1798 07DC                   i1l1894 02C3                   i1l1886 029F  
                 i1l1878 0214                   i1l1982 0FF6                   i1l1974 0FCD  
                 i1l1966 0FA4                   i1l1958 0F7E                   u204_20 05EB  
                 u212_20 0654                   i1l1896 02C4                   i1l1888 02A8  
                 i1l1984 0FF7                   i1l1976 0FD7                   i1l1968 0FB4  
                 u204_21 05EA                   u212_21 0653                   i1l1898 02CD  
                 i1l1978 0FED                   i1l1988 0E97                   u220_25 06E5  
                 u205_20 05F8                   u221_20 06FE                   u213_20 0659  
                 u205_21 05F7                   u221_21 06FD                   u213_21 0658  
                 u221_25 06FA                   u206_20 05FD                   u230_20 0762  
                 u222_20 0717                   u214_20 0674                   u206_21 05FC  
                 u230_21 0761                   u222_21 0716                   u214_21 0673  
                 u150_25 0CCA                   u207_20 060E                   u231_20 0768  
                 u223_20 071F                   u215_20 0692                   u151_20 0CD7  
                 u207_21 060D                   u231_21 0767                   u223_21 071E  
                 u215_21 0691                   u151_21 0CD6                   u232_20 077A  
                 u216_20 06CC                   u208_20 0621                   u240_20 0064  
                 u160_20 0E83                   u152_20 0E09                   u232_21 0779  
                 u216_21 06CB                   u208_21 0620                   u240_21 0063  
                 u160_21 0E82                   u152_21 0E08                   u224_25 0723  
                 u233_20 0789                   u225_20 072E                   u209_20 0627  
                 u241_20 006A                   u161_20 0E88                   u153_20 0E2E  
                 u225_21 072D                   u209_21 0626                   u241_21 0069  
                 u161_21 0E87                   u233_25 0784                   u217_25 06CE  
                 u153_25 0E29                   u170_20 03F5                   u162_20 0399  
                 u234_20 07A6                   u242_20 006F                   u154_20 0E46  
                 u170_21 03F4                   u162_21 0398                   u234_21 07A5  
                 u250_21 0176                   u242_21 006E                   u154_21 0E45  
                 u250_22 017D                   u250_23 0184                   u234_25 07A2  
                 u226_25 0731                   u218_25 06D7                   u171_20 044D  
                 u163_20 039F                   u235_20 07C3                   u227_20 0742  
                 u219_20 06E2                   u243_20 0086                   u155_20 0E4D  
                 u171_21 044C                   u163_21 039E                   u235_21 07C2  
                 u227_21 0741                   u219_21 06E1                   u251_21 01A3  
                 u243_21 0085                   u155_21 0E4C                   u251_22 01AA  
                 u251_23 01B1                   u171_25 0449                   u235_25 07BF  
                 u172_20 0458                   u164_20 03A4                   u236_20 07DA  
                 u228_20 0747                   u244_20 008B                   u180_21 04AD  
                 u172_21 0456                   u164_21 03A3                   u236_21 07D9  
                 u228_21 0746                   u244_21 008A                   u180_22 04B4  
                 u180_23 04BB                   u260_25 02A1                   u252_25 01B3  
                 u156_25 0E4F                   u181_20 04BF                   u173_20 0459  
                 u165_20 03C2                   u229_20 075B                   u149_20 0CC3  
                 u237_20 0038                   u157_20 0E63                   u181_21 04BE  
                 u165_21 03C1                   u229_21 075A                   u149_21 0CC2  
                 u253_21 01D9                   u245_21 00DC                   u237_21 0037  
                 u157_21 0E62                   u253_22 01E0                   u245_22 00E3  
                 u253_23 01E7                   u245_23 00EA                   u261_25 02B8  
                 u190_20 056A                   u182_20 04C3                   u174_20 046D  
                 u166_20 03CD                   u270_20 031E                   u262_20 02C3  
                 u238_20 003E                   u158_20 0E6A                   u190_21 0569  
                 u182_21 04C2                   u174_21 046C                   u166_21 03CC  
                 u262_21 02C2                   u254_21 0206                   u246_21 00F8  
                 u238_21 003D                   u158_21 0E69                   u254_22 020D  
                 u246_22 00FF                   u254_23 0214                   u246_23 0106  
                 u270_25 0319                   u183_20 04D2                   u175_20 047C  
                 u167_20 03D3                   u271_20 033B                   u239_20 0043  
                 u183_21 04D1                   u175_21 047B                   u167_21 03D2  
                 u271_21 033A                   u255_21 0233                   u247_21 0124  
                 u239_21 0042                   u255_22 023A                   u247_22 012B  
                 u255_23 0241                   u247_23 0132                   u191_25 0575  
                 u271_25 0337                   u263_25 02C6                   u159_25 0E6F  
                 u192_20 0580                   u168_20 03D8                   u272_20 0355  
                 u264_20 02D7                   u256_20 025D                   u280_20 0FB3  
                 u192_21 057F                   u168_21 03D7                   u272_21 0354  
                 u264_21 02D6                   u248_21 0140                   u280_21 0FB2  
                 u248_22 0147                   u248_23 014E                   u184_25 04D5  
                 u176_25 047F                   u272_25 0351                   u256_25 0258  
                 u193_20 0585                   u185_20 04F7                   u177_20 0492  
                 u169_20 03F1                   u273_20 0373                   u265_20 02DC  
                 u193_21 0584                   u185_21 04F6                   u177_21 0491  
                 u169_21 03F0                   u273_21 0372                   u265_21 02DB  
                 u257_21 0269                   u257_22 0270                   u185_23 04F3  
                 u257_23 0277                   u249_25 0150                   u281_25 0FB8  
                 u194_20 058F                   u178_20 0496                   u266_20 02F0  
                 u258_20 0285                   u282_20 0FC3                   u274_20 0F4C  
                 u290_20 0CE2                   u194_21 058E                   u186_21 050E  
                 u178_21 0495                   u266_21 02EF                   u282_21 0FC2  
                 u274_21 0F4B                   u290_21 0CE1                   u186_22 050F  
                 u186_23 0514                   u186_24 0515                   u186_25 051A  
                 u258_25 0280                   u186_26 051B                   u195_20 0595  
                 u187_20 0522                   u179_20 049B                   u267_20 02F7  
                 u283_20 0FC9                   u275_20 0F50                   u291_20 0CE6  
                 u195_21 0594                   u187_21 0523                   u179_21 049A  
                 u267_21 02F6                   u259_21 0291                   u283_21 0FC8  
                 u275_21 0F4F                   u291_21 0CE5                   u187_22 0528  
                 u259_22 0298                   u187_23 0529                   u259_23 029F  
                 u196_20 059A                   u188_20 0540                   u268_20 02FD  
                 u284_20 0FCD                   u276_20 0F70                   u292_20 0CF3  
                 u196_21 0599                   u188_21 053F                   u268_21 02FC  
                 u284_21 0FCC                   u276_21 0F6F                   u292_21 0CF2  
                 u197_20 05A0                   u189_20 0565                   u269_20 030F  
                 u285_20 0FE2                   u293_20 0D03                   u197_21 059F  
                 u189_21 0564                   u269_21 030E                   u293_21 0D02  
                 u285_25 0FDD                   u277_25 0F83                   u198_20 05A7  
                 u286_20 0FF2                   u278_20 0F91                   u294_20 0D07  
                 u198_21 05A6                   u286_21 0FF1                   u278_21 0F90  
                 u294_21 0D06                   u199_20 05AD                   u287_20 0FF6  
                 u295_20 0D13                   u199_21 05AC                   u287_21 0FF5  
                 u295_21 0D12                   u279_25 0FA5                   u296_20 0D24  
                 u296_21 0D23                   _SSPBUF 0013         __end_of___xxtofl 1000  
              ??___fladd 005C                ??___fldiv 0028                ??___flmul 0042  
              ??___fltol 00A0                   saved_w 007E             ___xxtofl@arg 007A  
           ___xxtofl@exp 0079             ___xxtofl@val 0070  __end_of__initialization 0023  
             ___fltol@f1 0068           __pcstackCOMMON 0070             __pidataBANK1 07F6  
          __end_of_setup 0DF8           _OPTION_REGbits 0081                  ??_setup 00B0  
             __pbssBANK0 006F               __pbssBANK1 00B1        __end_of__Umul8_16 0CDC  
             __pmaintext 07ED               __pintentry 0004                  _CCP1CON 0017  
              ?___xxtofl 0070               _cont_slave 00B6                  ___fladd 0388  
                ___fldiv 0610                  ___flmul 0027                  ___fltol 0DF8  
                __ptext1 0D69                  __ptext2 0CDC                  __ptext3 0E94  
                __ptext4 0F46                  __ptext5 0DF8                  __ptext6 0027  
                __ptext7 0CB5                  __ptext8 0610                  __ptext9 0388  
             ??___xxtofl 0074                  _valores 00B5     end_of_initialization 0023  
              _PORTAbits 0005                _PORTBbits 0006              ___fladd@grs 0067  
          ___xxtofl@sign 0078                _TRISBbits 0086                _TRISCbits 0087  
            ___fldiv@grs 0034              ___fldiv@rem 002D              ___flmul@grs 0048  
            _CCP1CONbits 0017      start_initialization 0013              __end_of_map 0F46  
            __end_of_isr 0D69                __Umul8_16 0CB5              __pdataBANK1 00B6  
              ___fladd@a 0058                ___fladd@b 0054                ___fldiv@a 0020  
              ___fldiv@b 0024                ___flmul@a 003E                ___flmul@b 003A  
              ___latbits 0002            __pcstackBANK0 0020            __pcstackBANK1 00A0  
               ?___fladd 0054                 ?___fldiv 0020                 ?___flmul 003A  
               ?___fltol 0068               ?__Umul8_16 0070        interrupt_function 0004  
               _IOCBbits 0096                 _PIE1bits 008C                 _PIR1bits 000C  
             _ADCON0bits 001F              _cont_master 00B4                 _WPUBbits 0095  
            ??__Umul8_16 0072                 ___xxtofl 0F46             _val_temporal 00B3  
             _INTCONbits 000B                 intlevel1 0000               _OSCCONbits 008F  
 __Umul8_16@multiplicand 0070            ___fladd@signs 0064             ___fladd@aexp 0065  
           ___fladd@bexp 0066     __Umul8_16@multiplier 0078               _SSPCONbits 0014  
      __Umul8_16@product 0074  
